
ctarget:     file format elf64-x86-64


Disassembly of section .init:

0000000000400bf0 <_init>:
  400bf0:	f3 0f 1e fa          	endbr64 
  400bf4:	48 83 ec 08          	sub    $0x8,%rsp
  400bf8:	48 8b 05 f1 33 20 00 	mov    0x2033f1(%rip),%rax        # 603ff0 <__gmon_start__@Base>
  400bff:	48 85 c0             	test   %rax,%rax
  400c02:	74 02                	je     400c06 <_init+0x16>
  400c04:	ff d0                	callq  *%rax
  400c06:	48 83 c4 08          	add    $0x8,%rsp
  400c0a:	c3                   	retq   

Disassembly of section .plt:

0000000000400c10 <.plt>:
  400c10:	ff 35 f2 33 20 00    	pushq  0x2033f2(%rip)        # 604008 <_GLOBAL_OFFSET_TABLE_+0x8>
  400c16:	ff 25 f4 33 20 00    	jmpq   *0x2033f4(%rip)        # 604010 <_GLOBAL_OFFSET_TABLE_+0x10>
  400c1c:	0f 1f 40 00          	nopl   0x0(%rax)

0000000000400c20 <strcasecmp@plt>:
  400c20:	ff 25 f2 33 20 00    	jmpq   *0x2033f2(%rip)        # 604018 <strcasecmp@GLIBC_2.2.5>
  400c26:	68 00 00 00 00       	pushq  $0x0
  400c2b:	e9 e0 ff ff ff       	jmpq   400c10 <.plt>

0000000000400c30 <__errno_location@plt>:
  400c30:	ff 25 ea 33 20 00    	jmpq   *0x2033ea(%rip)        # 604020 <__errno_location@GLIBC_2.2.5>
  400c36:	68 01 00 00 00       	pushq  $0x1
  400c3b:	e9 d0 ff ff ff       	jmpq   400c10 <.plt>

0000000000400c40 <srandom@plt>:
  400c40:	ff 25 e2 33 20 00    	jmpq   *0x2033e2(%rip)        # 604028 <srandom@GLIBC_2.2.5>
  400c46:	68 02 00 00 00       	pushq  $0x2
  400c4b:	e9 c0 ff ff ff       	jmpq   400c10 <.plt>

0000000000400c50 <strncmp@plt>:
  400c50:	ff 25 da 33 20 00    	jmpq   *0x2033da(%rip)        # 604030 <strncmp@GLIBC_2.2.5>
  400c56:	68 03 00 00 00       	pushq  $0x3
  400c5b:	e9 b0 ff ff ff       	jmpq   400c10 <.plt>

0000000000400c60 <strcpy@plt>:
  400c60:	ff 25 d2 33 20 00    	jmpq   *0x2033d2(%rip)        # 604038 <strcpy@GLIBC_2.2.5>
  400c66:	68 04 00 00 00       	pushq  $0x4
  400c6b:	e9 a0 ff ff ff       	jmpq   400c10 <.plt>

0000000000400c70 <puts@plt>:
  400c70:	ff 25 ca 33 20 00    	jmpq   *0x2033ca(%rip)        # 604040 <puts@GLIBC_2.2.5>
  400c76:	68 05 00 00 00       	pushq  $0x5
  400c7b:	e9 90 ff ff ff       	jmpq   400c10 <.plt>

0000000000400c80 <write@plt>:
  400c80:	ff 25 c2 33 20 00    	jmpq   *0x2033c2(%rip)        # 604048 <write@GLIBC_2.2.5>
  400c86:	68 06 00 00 00       	pushq  $0x6
  400c8b:	e9 80 ff ff ff       	jmpq   400c10 <.plt>

0000000000400c90 <mmap@plt>:
  400c90:	ff 25 ba 33 20 00    	jmpq   *0x2033ba(%rip)        # 604050 <mmap@GLIBC_2.2.5>
  400c96:	68 07 00 00 00       	pushq  $0x7
  400c9b:	e9 70 ff ff ff       	jmpq   400c10 <.plt>

0000000000400ca0 <printf@plt>:
  400ca0:	ff 25 b2 33 20 00    	jmpq   *0x2033b2(%rip)        # 604058 <printf@GLIBC_2.2.5>
  400ca6:	68 08 00 00 00       	pushq  $0x8
  400cab:	e9 60 ff ff ff       	jmpq   400c10 <.plt>

0000000000400cb0 <memset@plt>:
  400cb0:	ff 25 aa 33 20 00    	jmpq   *0x2033aa(%rip)        # 604060 <memset@GLIBC_2.2.5>
  400cb6:	68 09 00 00 00       	pushq  $0x9
  400cbb:	e9 50 ff ff ff       	jmpq   400c10 <.plt>

0000000000400cc0 <alarm@plt>:
  400cc0:	ff 25 a2 33 20 00    	jmpq   *0x2033a2(%rip)        # 604068 <alarm@GLIBC_2.2.5>
  400cc6:	68 0a 00 00 00       	pushq  $0xa
  400ccb:	e9 40 ff ff ff       	jmpq   400c10 <.plt>

0000000000400cd0 <close@plt>:
  400cd0:	ff 25 9a 33 20 00    	jmpq   *0x20339a(%rip)        # 604070 <close@GLIBC_2.2.5>
  400cd6:	68 0b 00 00 00       	pushq  $0xb
  400cdb:	e9 30 ff ff ff       	jmpq   400c10 <.plt>

0000000000400ce0 <read@plt>:
  400ce0:	ff 25 92 33 20 00    	jmpq   *0x203392(%rip)        # 604078 <read@GLIBC_2.2.5>
  400ce6:	68 0c 00 00 00       	pushq  $0xc
  400ceb:	e9 20 ff ff ff       	jmpq   400c10 <.plt>

0000000000400cf0 <signal@plt>:
  400cf0:	ff 25 8a 33 20 00    	jmpq   *0x20338a(%rip)        # 604080 <signal@GLIBC_2.2.5>
  400cf6:	68 0d 00 00 00       	pushq  $0xd
  400cfb:	e9 10 ff ff ff       	jmpq   400c10 <.plt>

0000000000400d00 <gethostbyname@plt>:
  400d00:	ff 25 82 33 20 00    	jmpq   *0x203382(%rip)        # 604088 <gethostbyname@GLIBC_2.2.5>
  400d06:	68 0e 00 00 00       	pushq  $0xe
  400d0b:	e9 00 ff ff ff       	jmpq   400c10 <.plt>

0000000000400d10 <fprintf@plt>:
  400d10:	ff 25 7a 33 20 00    	jmpq   *0x20337a(%rip)        # 604090 <fprintf@GLIBC_2.2.5>
  400d16:	68 0f 00 00 00       	pushq  $0xf
  400d1b:	e9 f0 fe ff ff       	jmpq   400c10 <.plt>

0000000000400d20 <strtol@plt>:
  400d20:	ff 25 72 33 20 00    	jmpq   *0x203372(%rip)        # 604098 <strtol@GLIBC_2.2.5>
  400d26:	68 10 00 00 00       	pushq  $0x10
  400d2b:	e9 e0 fe ff ff       	jmpq   400c10 <.plt>

0000000000400d30 <time@plt>:
  400d30:	ff 25 6a 33 20 00    	jmpq   *0x20336a(%rip)        # 6040a0 <time@GLIBC_2.2.5>
  400d36:	68 11 00 00 00       	pushq  $0x11
  400d3b:	e9 d0 fe ff ff       	jmpq   400c10 <.plt>

0000000000400d40 <random@plt>:
  400d40:	ff 25 62 33 20 00    	jmpq   *0x203362(%rip)        # 6040a8 <random@GLIBC_2.2.5>
  400d46:	68 12 00 00 00       	pushq  $0x12
  400d4b:	e9 c0 fe ff ff       	jmpq   400c10 <.plt>

0000000000400d50 <__isoc99_sscanf@plt>:
  400d50:	ff 25 5a 33 20 00    	jmpq   *0x20335a(%rip)        # 6040b0 <__isoc99_sscanf@GLIBC_2.7>
  400d56:	68 13 00 00 00       	pushq  $0x13
  400d5b:	e9 b0 fe ff ff       	jmpq   400c10 <.plt>

0000000000400d60 <munmap@plt>:
  400d60:	ff 25 52 33 20 00    	jmpq   *0x203352(%rip)        # 6040b8 <munmap@GLIBC_2.2.5>
  400d66:	68 14 00 00 00       	pushq  $0x14
  400d6b:	e9 a0 fe ff ff       	jmpq   400c10 <.plt>

0000000000400d70 <memmove@plt>:
  400d70:	ff 25 4a 33 20 00    	jmpq   *0x20334a(%rip)        # 6040c0 <memmove@GLIBC_2.2.5>
  400d76:	68 15 00 00 00       	pushq  $0x15
  400d7b:	e9 90 fe ff ff       	jmpq   400c10 <.plt>

0000000000400d80 <fopen@plt>:
  400d80:	ff 25 42 33 20 00    	jmpq   *0x203342(%rip)        # 6040c8 <fopen@GLIBC_2.2.5>
  400d86:	68 16 00 00 00       	pushq  $0x16
  400d8b:	e9 80 fe ff ff       	jmpq   400c10 <.plt>

0000000000400d90 <getopt@plt>:
  400d90:	ff 25 3a 33 20 00    	jmpq   *0x20333a(%rip)        # 6040d0 <getopt@GLIBC_2.2.5>
  400d96:	68 17 00 00 00       	pushq  $0x17
  400d9b:	e9 70 fe ff ff       	jmpq   400c10 <.plt>

0000000000400da0 <strtoul@plt>:
  400da0:	ff 25 32 33 20 00    	jmpq   *0x203332(%rip)        # 6040d8 <strtoul@GLIBC_2.2.5>
  400da6:	68 18 00 00 00       	pushq  $0x18
  400dab:	e9 60 fe ff ff       	jmpq   400c10 <.plt>

0000000000400db0 <gethostname@plt>:
  400db0:	ff 25 2a 33 20 00    	jmpq   *0x20332a(%rip)        # 6040e0 <gethostname@GLIBC_2.2.5>
  400db6:	68 19 00 00 00       	pushq  $0x19
  400dbb:	e9 50 fe ff ff       	jmpq   400c10 <.plt>

0000000000400dc0 <sprintf@plt>:
  400dc0:	ff 25 22 33 20 00    	jmpq   *0x203322(%rip)        # 6040e8 <sprintf@GLIBC_2.2.5>
  400dc6:	68 1a 00 00 00       	pushq  $0x1a
  400dcb:	e9 40 fe ff ff       	jmpq   400c10 <.plt>

0000000000400dd0 <exit@plt>:
  400dd0:	ff 25 1a 33 20 00    	jmpq   *0x20331a(%rip)        # 6040f0 <exit@GLIBC_2.2.5>
  400dd6:	68 1b 00 00 00       	pushq  $0x1b
  400ddb:	e9 30 fe ff ff       	jmpq   400c10 <.plt>

0000000000400de0 <connect@plt>:
  400de0:	ff 25 12 33 20 00    	jmpq   *0x203312(%rip)        # 6040f8 <connect@GLIBC_2.2.5>
  400de6:	68 1c 00 00 00       	pushq  $0x1c
  400deb:	e9 20 fe ff ff       	jmpq   400c10 <.plt>

0000000000400df0 <getc@plt>:
  400df0:	ff 25 0a 33 20 00    	jmpq   *0x20330a(%rip)        # 604100 <getc@GLIBC_2.2.5>
  400df6:	68 1d 00 00 00       	pushq  $0x1d
  400dfb:	e9 10 fe ff ff       	jmpq   400c10 <.plt>

0000000000400e00 <socket@plt>:
  400e00:	ff 25 02 33 20 00    	jmpq   *0x203302(%rip)        # 604108 <socket@GLIBC_2.2.5>
  400e06:	68 1e 00 00 00       	pushq  $0x1e
  400e0b:	e9 00 fe ff ff       	jmpq   400c10 <.plt>

Disassembly of section .text:

0000000000400e10 <_start>:
  400e10:	f3 0f 1e fa          	endbr64 
  400e14:	31 ed                	xor    %ebp,%ebp
  400e16:	49 89 d1             	mov    %rdx,%r9
  400e19:	5e                   	pop    %rsi
  400e1a:	48 89 e2             	mov    %rsp,%rdx
  400e1d:	48 83 e4 f0          	and    $0xfffffffffffffff0,%rsp
  400e21:	50                   	push   %rax
  400e22:	54                   	push   %rsp
  400e23:	49 c7 c0 10 2b 40 00 	mov    $0x402b10,%r8
  400e2a:	48 c7 c1 a0 2a 40 00 	mov    $0x402aa0,%rcx
  400e31:	48 c7 c7 bb 10 40 00 	mov    $0x4010bb,%rdi
  400e38:	ff 15 aa 31 20 00    	callq  *0x2031aa(%rip)        # 603fe8 <__libc_start_main@GLIBC_2.2.5>
  400e3e:	f4                   	hlt    

0000000000400e3f <.annobin_init.c>:
  400e3f:	90                   	nop

0000000000400e40 <_dl_relocate_static_pie>:
  400e40:	f3 0f 1e fa          	endbr64 
  400e44:	c3                   	retq   

0000000000400e45 <.annobin__dl_relocate_static_pie.end>:
  400e45:	66 2e 0f 1f 84 00 00 	nopw   %cs:0x0(%rax,%rax,1)
  400e4c:	00 00 00 
  400e4f:	90                   	nop

0000000000400e50 <deregister_tm_clones>:
  400e50:	48 8d 3d 39 36 20 00 	lea    0x203639(%rip),%rdi        # 604490 <__TMC_END__>
  400e57:	48 8d 05 32 36 20 00 	lea    0x203632(%rip),%rax        # 604490 <__TMC_END__>
  400e5e:	48 39 f8             	cmp    %rdi,%rax
  400e61:	74 15                	je     400e78 <deregister_tm_clones+0x28>
  400e63:	48 8b 05 76 31 20 00 	mov    0x203176(%rip),%rax        # 603fe0 <_ITM_deregisterTMCloneTable@Base>
  400e6a:	48 85 c0             	test   %rax,%rax
  400e6d:	74 09                	je     400e78 <deregister_tm_clones+0x28>
  400e6f:	ff e0                	jmpq   *%rax
  400e71:	0f 1f 80 00 00 00 00 	nopl   0x0(%rax)
  400e78:	c3                   	retq   
  400e79:	0f 1f 80 00 00 00 00 	nopl   0x0(%rax)

0000000000400e80 <register_tm_clones>:
  400e80:	48 8d 3d 09 36 20 00 	lea    0x203609(%rip),%rdi        # 604490 <__TMC_END__>
  400e87:	48 8d 35 02 36 20 00 	lea    0x203602(%rip),%rsi        # 604490 <__TMC_END__>
  400e8e:	48 29 fe             	sub    %rdi,%rsi
  400e91:	48 c1 fe 03          	sar    $0x3,%rsi
  400e95:	48 89 f0             	mov    %rsi,%rax
  400e98:	48 c1 e8 3f          	shr    $0x3f,%rax
  400e9c:	48 01 c6             	add    %rax,%rsi
  400e9f:	48 d1 fe             	sar    %rsi
  400ea2:	74 14                	je     400eb8 <register_tm_clones+0x38>
  400ea4:	48 8b 05 4d 31 20 00 	mov    0x20314d(%rip),%rax        # 603ff8 <_ITM_registerTMCloneTable@Base>
  400eab:	48 85 c0             	test   %rax,%rax
  400eae:	74 08                	je     400eb8 <register_tm_clones+0x38>
  400eb0:	ff e0                	jmpq   *%rax
  400eb2:	66 0f 1f 44 00 00    	nopw   0x0(%rax,%rax,1)
  400eb8:	c3                   	retq   
  400eb9:	0f 1f 80 00 00 00 00 	nopl   0x0(%rax)

0000000000400ec0 <__do_global_dtors_aux>:
  400ec0:	f3 0f 1e fa          	endbr64 
  400ec4:	80 3d fd 35 20 00 00 	cmpb   $0x0,0x2035fd(%rip)        # 6044c8 <completed.7303>
  400ecb:	75 13                	jne    400ee0 <__do_global_dtors_aux+0x20>
  400ecd:	55                   	push   %rbp
  400ece:	48 89 e5             	mov    %rsp,%rbp
  400ed1:	e8 7a ff ff ff       	callq  400e50 <deregister_tm_clones>
  400ed6:	c6 05 eb 35 20 00 01 	movb   $0x1,0x2035eb(%rip)        # 6044c8 <completed.7303>
  400edd:	5d                   	pop    %rbp
  400ede:	c3                   	retq   
  400edf:	90                   	nop
  400ee0:	c3                   	retq   
  400ee1:	66 66 2e 0f 1f 84 00 	data16 nopw %cs:0x0(%rax,%rax,1)
  400ee8:	00 00 00 00 
  400eec:	0f 1f 40 00          	nopl   0x0(%rax)

0000000000400ef0 <frame_dummy>:
  400ef0:	f3 0f 1e fa          	endbr64 
  400ef4:	eb 8a                	jmp    400e80 <register_tm_clones>

0000000000400ef6 <usage>:
  400ef6:	48 83 ec 08          	sub    $0x8,%rsp
  400efa:	48 89 fe             	mov    %rdi,%rsi
  400efd:	83 3d 04 36 20 00 00 	cmpl   $0x0,0x203604(%rip)        # 604508 <is_checker>
  400f04:	74 41                	je     400f47 <usage+0x51>
  400f06:	bf 40 2b 40 00       	mov    $0x402b40,%edi
  400f0b:	b8 00 00 00 00       	mov    $0x0,%eax
  400f10:	e8 8b fd ff ff       	callq  400ca0 <printf@plt>
  400f15:	bf 78 2b 40 00       	mov    $0x402b78,%edi
  400f1a:	e8 51 fd ff ff       	callq  400c70 <puts@plt>
  400f1f:	bf f0 2c 40 00       	mov    $0x402cf0,%edi
  400f24:	e8 47 fd ff ff       	callq  400c70 <puts@plt>
  400f29:	bf a0 2b 40 00       	mov    $0x402ba0,%edi
  400f2e:	e8 3d fd ff ff       	callq  400c70 <puts@plt>
  400f33:	bf 0a 2d 40 00       	mov    $0x402d0a,%edi
  400f38:	e8 33 fd ff ff       	callq  400c70 <puts@plt>
  400f3d:	bf 00 00 00 00       	mov    $0x0,%edi
  400f42:	e8 89 fe ff ff       	callq  400dd0 <exit@plt>
  400f47:	bf 26 2d 40 00       	mov    $0x402d26,%edi
  400f4c:	b8 00 00 00 00       	mov    $0x0,%eax
  400f51:	e8 4a fd ff ff       	callq  400ca0 <printf@plt>
  400f56:	bf c8 2b 40 00       	mov    $0x402bc8,%edi
  400f5b:	e8 10 fd ff ff       	callq  400c70 <puts@plt>
  400f60:	bf f0 2b 40 00       	mov    $0x402bf0,%edi
  400f65:	e8 06 fd ff ff       	callq  400c70 <puts@plt>
  400f6a:	bf 44 2d 40 00       	mov    $0x402d44,%edi
  400f6f:	e8 fc fc ff ff       	callq  400c70 <puts@plt>
  400f74:	eb c7                	jmp    400f3d <usage+0x47>

0000000000400f76 <initialize_target>:
  400f76:	55                   	push   %rbp
  400f77:	53                   	push   %rbx
  400f78:	48 81 ec 08 21 00 00 	sub    $0x2108,%rsp
  400f7f:	89 f5                	mov    %esi,%ebp
  400f81:	89 3d 71 35 20 00    	mov    %edi,0x203571(%rip)        # 6044f8 <check_level>
  400f87:	8b 3d bb 31 20 00    	mov    0x2031bb(%rip),%edi        # 604148 <target_id>
  400f8d:	e8 e2 1a 00 00       	callq  402a74 <gencookie>
  400f92:	89 05 6c 35 20 00    	mov    %eax,0x20356c(%rip)        # 604504 <cookie>
  400f98:	89 c7                	mov    %eax,%edi
  400f9a:	e8 d5 1a 00 00       	callq  402a74 <gencookie>
  400f9f:	89 05 5b 35 20 00    	mov    %eax,0x20355b(%rip)        # 604500 <authkey>
  400fa5:	8b 05 9d 31 20 00    	mov    0x20319d(%rip),%eax        # 604148 <target_id>
  400fab:	8d 78 01             	lea    0x1(%rax),%edi
  400fae:	e8 8d fc ff ff       	callq  400c40 <srandom@plt>
  400fb3:	e8 88 fd ff ff       	callq  400d40 <random@plt>
  400fb8:	89 c7                	mov    %eax,%edi
  400fba:	e8 b8 02 00 00       	callq  401277 <scramble>
  400fbf:	89 c3                	mov    %eax,%ebx
  400fc1:	b8 00 00 00 00       	mov    $0x0,%eax
  400fc6:	85 ed                	test   %ebp,%ebp
  400fc8:	75 38                	jne    401002 <initialize_target+0x8c>
  400fca:	01 d8                	add    %ebx,%eax
  400fcc:	0f b7 c0             	movzwl %ax,%eax
  400fcf:	8d 04 c5 00 01 00 00 	lea    0x100(,%rax,8),%eax
  400fd6:	89 c0                	mov    %eax,%eax
  400fd8:	48 89 05 a1 34 20 00 	mov    %rax,0x2034a1(%rip)        # 604480 <buf_offset>
  400fdf:	c6 05 42 41 20 00 63 	movb   $0x63,0x204142(%rip)        # 605128 <target_prefix>
  400fe6:	83 3d 9b 34 20 00 00 	cmpl   $0x0,0x20349b(%rip)        # 604488 <notify>
  400fed:	74 09                	je     400ff8 <initialize_target+0x82>
  400fef:	83 3d 12 35 20 00 00 	cmpl   $0x0,0x203512(%rip)        # 604508 <is_checker>
  400ff6:	74 22                	je     40101a <initialize_target+0xa4>
  400ff8:	48 81 c4 08 21 00 00 	add    $0x2108,%rsp
  400fff:	5b                   	pop    %rbx
  401000:	5d                   	pop    %rbp
  401001:	c3                   	retq   
  401002:	bf 00 00 00 00       	mov    $0x0,%edi
  401007:	e8 24 fd ff ff       	callq  400d30 <time@plt>
  40100c:	89 c7                	mov    %eax,%edi
  40100e:	e8 2d fc ff ff       	callq  400c40 <srandom@plt>
  401013:	e8 28 fd ff ff       	callq  400d40 <random@plt>
  401018:	eb b0                	jmp    400fca <initialize_target+0x54>
  40101a:	be 00 01 00 00       	mov    $0x100,%esi
  40101f:	48 89 e7             	mov    %rsp,%rdi
  401022:	e8 89 fd ff ff       	callq  400db0 <gethostname@plt>
  401027:	85 c0                	test   %eax,%eax
  401029:	75 46                	jne    401071 <initialize_target+0xfb>
  40102b:	48 8b 3d 2e 31 20 00 	mov    0x20312e(%rip),%rdi        # 604160 <host_table>
  401032:	bb 68 41 60 00       	mov    $0x604168,%ebx
  401037:	48 85 ff             	test   %rdi,%rdi
  40103a:	74 19                	je     401055 <initialize_target+0xdf>
  40103c:	48 89 e6             	mov    %rsp,%rsi
  40103f:	e8 dc fb ff ff       	callq  400c20 <strcasecmp@plt>
  401044:	85 c0                	test   %eax,%eax
  401046:	74 3d                	je     401085 <initialize_target+0x10f>
  401048:	48 83 c3 08          	add    $0x8,%rbx
  40104c:	48 8b 7b f8          	mov    -0x8(%rbx),%rdi
  401050:	48 85 ff             	test   %rdi,%rdi
  401053:	75 e7                	jne    40103c <initialize_target+0xc6>
  401055:	48 89 e6             	mov    %rsp,%rsi
  401058:	bf 80 2c 40 00       	mov    $0x402c80,%edi
  40105d:	b8 00 00 00 00       	mov    $0x0,%eax
  401062:	e8 39 fc ff ff       	callq  400ca0 <printf@plt>
  401067:	bf 08 00 00 00       	mov    $0x8,%edi
  40106c:	e8 5f fd ff ff       	callq  400dd0 <exit@plt>
  401071:	bf 20 2c 40 00       	mov    $0x402c20,%edi
  401076:	e8 f5 fb ff ff       	callq  400c70 <puts@plt>
  40107b:	bf 08 00 00 00       	mov    $0x8,%edi
  401080:	e8 4b fd ff ff       	callq  400dd0 <exit@plt>
  401085:	48 8d bc 24 00 01 00 	lea    0x100(%rsp),%rdi
  40108c:	00 
  40108d:	e8 66 17 00 00       	callq  4027f8 <init_driver>
  401092:	85 c0                	test   %eax,%eax
  401094:	0f 89 5e ff ff ff    	jns    400ff8 <initialize_target+0x82>
  40109a:	48 8d b4 24 00 01 00 	lea    0x100(%rsp),%rsi
  4010a1:	00 
  4010a2:	bf 58 2c 40 00       	mov    $0x402c58,%edi
  4010a7:	b8 00 00 00 00       	mov    $0x0,%eax
  4010ac:	e8 ef fb ff ff       	callq  400ca0 <printf@plt>
  4010b1:	bf 08 00 00 00       	mov    $0x8,%edi
  4010b6:	e8 15 fd ff ff       	callq  400dd0 <exit@plt>

00000000004010bb <main>:
  4010bb:	41 56                	push   %r14
  4010bd:	41 55                	push   %r13
  4010bf:	41 54                	push   %r12
  4010c1:	55                   	push   %rbp
  4010c2:	53                   	push   %rbx
  4010c3:	41 89 fc             	mov    %edi,%r12d
  4010c6:	48 89 f5             	mov    %rsi,%rbp
  4010c9:	be 82 1c 40 00       	mov    $0x401c82,%esi
  4010ce:	bf 0b 00 00 00       	mov    $0xb,%edi
  4010d3:	e8 18 fc ff ff       	callq  400cf0 <signal@plt>
  4010d8:	be 34 1c 40 00       	mov    $0x401c34,%esi
  4010dd:	bf 07 00 00 00       	mov    $0x7,%edi
  4010e2:	e8 09 fc ff ff       	callq  400cf0 <signal@plt>
  4010e7:	be d0 1c 40 00       	mov    $0x401cd0,%esi
  4010ec:	bf 04 00 00 00       	mov    $0x4,%edi
  4010f1:	e8 fa fb ff ff       	callq  400cf0 <signal@plt>
  4010f6:	bb 65 2d 40 00       	mov    $0x402d65,%ebx
  4010fb:	83 3d 06 34 20 00 00 	cmpl   $0x0,0x203406(%rip)        # 604508 <is_checker>
  401102:	75 1f                	jne    401123 <main+0x68>
  401104:	48 8b 05 95 33 20 00 	mov    0x203395(%rip),%rax        # 6044a0 <stdin@@GLIBC_2.2.5>
  40110b:	48 89 05 de 33 20 00 	mov    %rax,0x2033de(%rip)        # 6044f0 <infile>
  401112:	41 bd 00 00 00 00    	mov    $0x0,%r13d
  401118:	41 be 00 00 00 00    	mov    $0x0,%r14d
  40111e:	e9 81 00 00 00       	jmpq   4011a4 <main+0xe9>
  401123:	be 1e 1d 40 00       	mov    $0x401d1e,%esi
  401128:	bf 0e 00 00 00       	mov    $0xe,%edi
  40112d:	e8 be fb ff ff       	callq  400cf0 <signal@plt>
  401132:	bf 05 00 00 00       	mov    $0x5,%edi
  401137:	e8 84 fb ff ff       	callq  400cc0 <alarm@plt>
  40113c:	bb 5d 2d 40 00       	mov    $0x402d5d,%ebx
  401141:	eb c1                	jmp    401104 <main+0x49>
  401143:	48 8b 7d 00          	mov    0x0(%rbp),%rdi
  401147:	e8 aa fd ff ff       	callq  400ef6 <usage>
  40114c:	be 0d 32 40 00       	mov    $0x40320d,%esi
  401151:	48 8b 3d 50 33 20 00 	mov    0x203350(%rip),%rdi        # 6044a8 <optarg@@GLIBC_2.2.5>
  401158:	e8 23 fc ff ff       	callq  400d80 <fopen@plt>
  40115d:	48 89 05 8c 33 20 00 	mov    %rax,0x20338c(%rip)        # 6044f0 <infile>
  401164:	48 85 c0             	test   %rax,%rax
  401167:	75 3b                	jne    4011a4 <main+0xe9>
  401169:	48 8b 15 38 33 20 00 	mov    0x203338(%rip),%rdx        # 6044a8 <optarg@@GLIBC_2.2.5>
  401170:	be 6a 2d 40 00       	mov    $0x402d6a,%esi
  401175:	48 8b 3d 44 33 20 00 	mov    0x203344(%rip),%rdi        # 6044c0 <stderr@@GLIBC_2.2.5>
  40117c:	e8 8f fb ff ff       	callq  400d10 <fprintf@plt>
  401181:	b8 01 00 00 00       	mov    $0x1,%eax
  401186:	e9 c5 00 00 00       	jmpq   401250 <main+0x195>
  40118b:	ba 10 00 00 00       	mov    $0x10,%edx
  401190:	be 00 00 00 00       	mov    $0x0,%esi
  401195:	48 8b 3d 0c 33 20 00 	mov    0x20330c(%rip),%rdi        # 6044a8 <optarg@@GLIBC_2.2.5>
  40119c:	e8 ff fb ff ff       	callq  400da0 <strtoul@plt>
  4011a1:	41 89 c6             	mov    %eax,%r14d
  4011a4:	48 89 da             	mov    %rbx,%rdx
  4011a7:	48 89 ee             	mov    %rbp,%rsi
  4011aa:	44 89 e7             	mov    %r12d,%edi
  4011ad:	e8 de fb ff ff       	callq  400d90 <getopt@plt>
  4011b2:	89 c2                	mov    %eax,%edx
  4011b4:	3c ff                	cmp    $0xff,%al
  4011b6:	74 53                	je     40120b <main+0x150>
  4011b8:	83 e8 61             	sub    $0x61,%eax
  4011bb:	3c 10                	cmp    $0x10,%al
  4011bd:	77 31                	ja     4011f0 <main+0x135>
  4011bf:	0f b6 c0             	movzbl %al,%eax
  4011c2:	ff 24 c5 a8 2d 40 00 	jmpq   *0x402da8(,%rax,8)
  4011c9:	ba 0a 00 00 00       	mov    $0xa,%edx
  4011ce:	be 00 00 00 00       	mov    $0x0,%esi
  4011d3:	48 8b 3d ce 32 20 00 	mov    0x2032ce(%rip),%rdi        # 6044a8 <optarg@@GLIBC_2.2.5>
  4011da:	e8 41 fb ff ff       	callq  400d20 <strtol@plt>
  4011df:	41 89 c5             	mov    %eax,%r13d
  4011e2:	eb c0                	jmp    4011a4 <main+0xe9>
  4011e4:	c7 05 9a 32 20 00 00 	movl   $0x0,0x20329a(%rip)        # 604488 <notify>
  4011eb:	00 00 00 
  4011ee:	eb b4                	jmp    4011a4 <main+0xe9>
  4011f0:	0f be f2             	movsbl %dl,%esi
  4011f3:	bf 87 2d 40 00       	mov    $0x402d87,%edi
  4011f8:	b8 00 00 00 00       	mov    $0x0,%eax
  4011fd:	e8 9e fa ff ff       	callq  400ca0 <printf@plt>
  401202:	48 8b 7d 00          	mov    0x0(%rbp),%rdi
  401206:	e8 eb fc ff ff       	callq  400ef6 <usage>
  40120b:	be 00 00 00 00       	mov    $0x0,%esi
  401210:	44 89 ef             	mov    %r13d,%edi
  401213:	e8 5e fd ff ff       	callq  400f76 <initialize_target>
  401218:	83 3d e9 32 20 00 00 	cmpl   $0x0,0x2032e9(%rip)        # 604508 <is_checker>
  40121f:	74 09                	je     40122a <main+0x16f>
  401221:	44 39 35 d8 32 20 00 	cmp    %r14d,0x2032d8(%rip)        # 604500 <authkey>
  401228:	75 2f                	jne    401259 <main+0x19e>
  40122a:	8b 35 d4 32 20 00    	mov    0x2032d4(%rip),%esi        # 604504 <cookie>
  401230:	bf 9a 2d 40 00       	mov    $0x402d9a,%edi
  401235:	b8 00 00 00 00       	mov    $0x0,%eax
  40123a:	e8 61 fa ff ff       	callq  400ca0 <printf@plt>
  40123f:	48 8b 3d 3a 32 20 00 	mov    0x20323a(%rip),%rdi        # 604480 <buf_offset>
  401246:	e8 a4 0b 00 00       	callq  401def <stable_launch>
  40124b:	b8 00 00 00 00       	mov    $0x0,%eax
  401250:	5b                   	pop    %rbx
  401251:	5d                   	pop    %rbp
  401252:	41 5c                	pop    %r12
  401254:	41 5d                	pop    %r13
  401256:	41 5e                	pop    %r14
  401258:	c3                   	retq   
  401259:	44 89 f6             	mov    %r14d,%esi
  40125c:	bf c0 2c 40 00       	mov    $0x402cc0,%edi
  401261:	b8 00 00 00 00       	mov    $0x0,%eax
  401266:	e8 35 fa ff ff       	callq  400ca0 <printf@plt>
  40126b:	b8 00 00 00 00       	mov    $0x0,%eax
  401270:	e8 4d 06 00 00       	callq  4018c2 <check_fail>
  401275:	eb b3                	jmp    40122a <main+0x16f>

0000000000401277 <scramble>:
  401277:	b8 00 00 00 00       	mov    $0x0,%eax
  40127c:	89 c2                	mov    %eax,%edx
  40127e:	89 7c 94 d0          	mov    %edi,-0x30(%rsp,%rdx,4)
  401282:	83 c0 01             	add    $0x1,%eax
  401285:	81 c7 09 b7 00 00    	add    $0xb709,%edi
  40128b:	83 f8 0a             	cmp    $0xa,%eax
  40128e:	75 ec                	jne    40127c <scramble+0x5>
  401290:	8b 44 24 f0          	mov    -0x10(%rsp),%eax
  401294:	69 c0 08 36 00 00    	imul   $0x3608,%eax,%eax
  40129a:	89 44 24 f0          	mov    %eax,-0x10(%rsp)
  40129e:	8b 44 24 ec          	mov    -0x14(%rsp),%eax
  4012a2:	69 c0 8c 5d 00 00    	imul   $0x5d8c,%eax,%eax
  4012a8:	89 44 24 ec          	mov    %eax,-0x14(%rsp)
  4012ac:	8b 44 24 e4          	mov    -0x1c(%rsp),%eax
  4012b0:	69 c0 b6 68 00 00    	imul   $0x68b6,%eax,%eax
  4012b6:	89 44 24 e4          	mov    %eax,-0x1c(%rsp)
  4012ba:	8b 44 24 f0          	mov    -0x10(%rsp),%eax
  4012be:	69 c0 11 f5 00 00    	imul   $0xf511,%eax,%eax
  4012c4:	89 44 24 f0          	mov    %eax,-0x10(%rsp)
  4012c8:	8b 44 24 e4          	mov    -0x1c(%rsp),%eax
  4012cc:	69 c0 64 0a 00 00    	imul   $0xa64,%eax,%eax
  4012d2:	89 44 24 e4          	mov    %eax,-0x1c(%rsp)
  4012d6:	8b 44 24 f0          	mov    -0x10(%rsp),%eax
  4012da:	69 c0 c9 5d 00 00    	imul   $0x5dc9,%eax,%eax
  4012e0:	89 44 24 f0          	mov    %eax,-0x10(%rsp)
  4012e4:	8b 44 24 e4          	mov    -0x1c(%rsp),%eax
  4012e8:	69 c0 fd 0c 00 00    	imul   $0xcfd,%eax,%eax
  4012ee:	89 44 24 e4          	mov    %eax,-0x1c(%rsp)
  4012f2:	8b 44 24 d0          	mov    -0x30(%rsp),%eax
  4012f6:	69 c0 00 73 00 00    	imul   $0x7300,%eax,%eax
  4012fc:	89 44 24 d0          	mov    %eax,-0x30(%rsp)
  401300:	8b 44 24 f0          	mov    -0x10(%rsp),%eax
  401304:	69 c0 0b 6a 00 00    	imul   $0x6a0b,%eax,%eax
  40130a:	89 44 24 f0          	mov    %eax,-0x10(%rsp)
  40130e:	8b 44 24 ec          	mov    -0x14(%rsp),%eax
  401312:	69 c0 63 d6 00 00    	imul   $0xd663,%eax,%eax
  401318:	89 44 24 ec          	mov    %eax,-0x14(%rsp)
  40131c:	8b 44 24 e4          	mov    -0x1c(%rsp),%eax
  401320:	69 c0 dd 10 00 00    	imul   $0x10dd,%eax,%eax
  401326:	89 44 24 e4          	mov    %eax,-0x1c(%rsp)
  40132a:	8b 44 24 f0          	mov    -0x10(%rsp),%eax
  40132e:	69 c0 0a a4 00 00    	imul   $0xa40a,%eax,%eax
  401334:	89 44 24 f0          	mov    %eax,-0x10(%rsp)
  401338:	8b 44 24 d4          	mov    -0x2c(%rsp),%eax
  40133c:	69 c0 b2 46 00 00    	imul   $0x46b2,%eax,%eax
  401342:	89 44 24 d4          	mov    %eax,-0x2c(%rsp)
  401346:	8b 44 24 f0          	mov    -0x10(%rsp),%eax
  40134a:	69 c0 47 74 00 00    	imul   $0x7447,%eax,%eax
  401350:	89 44 24 f0          	mov    %eax,-0x10(%rsp)
  401354:	8b 44 24 e4          	mov    -0x1c(%rsp),%eax
  401358:	69 c0 55 7f 00 00    	imul   $0x7f55,%eax,%eax
  40135e:	89 44 24 e4          	mov    %eax,-0x1c(%rsp)
  401362:	8b 44 24 f4          	mov    -0xc(%rsp),%eax
  401366:	69 c0 b4 9c 00 00    	imul   $0x9cb4,%eax,%eax
  40136c:	89 44 24 f4          	mov    %eax,-0xc(%rsp)
  401370:	8b 44 24 d8          	mov    -0x28(%rsp),%eax
  401374:	69 c0 03 07 00 00    	imul   $0x703,%eax,%eax
  40137a:	89 44 24 d8          	mov    %eax,-0x28(%rsp)
  40137e:	8b 44 24 e4          	mov    -0x1c(%rsp),%eax
  401382:	69 c0 3a af 00 00    	imul   $0xaf3a,%eax,%eax
  401388:	89 44 24 e4          	mov    %eax,-0x1c(%rsp)
  40138c:	8b 44 24 e0          	mov    -0x20(%rsp),%eax
  401390:	69 c0 b1 c9 00 00    	imul   $0xc9b1,%eax,%eax
  401396:	89 44 24 e0          	mov    %eax,-0x20(%rsp)
  40139a:	8b 44 24 d4          	mov    -0x2c(%rsp),%eax
  40139e:	69 c0 33 34 00 00    	imul   $0x3433,%eax,%eax
  4013a4:	89 44 24 d4          	mov    %eax,-0x2c(%rsp)
  4013a8:	8b 44 24 ec          	mov    -0x14(%rsp),%eax
  4013ac:	69 c0 b5 a2 00 00    	imul   $0xa2b5,%eax,%eax
  4013b2:	89 44 24 ec          	mov    %eax,-0x14(%rsp)
  4013b6:	8b 44 24 f0          	mov    -0x10(%rsp),%eax
  4013ba:	69 c0 07 a6 00 00    	imul   $0xa607,%eax,%eax
  4013c0:	89 44 24 f0          	mov    %eax,-0x10(%rsp)
  4013c4:	8b 44 24 f4          	mov    -0xc(%rsp),%eax
  4013c8:	69 c0 5c b4 00 00    	imul   $0xb45c,%eax,%eax
  4013ce:	89 44 24 f4          	mov    %eax,-0xc(%rsp)
  4013d2:	8b 44 24 e4          	mov    -0x1c(%rsp),%eax
  4013d6:	69 c0 9e cf 00 00    	imul   $0xcf9e,%eax,%eax
  4013dc:	89 44 24 e4          	mov    %eax,-0x1c(%rsp)
  4013e0:	8b 44 24 dc          	mov    -0x24(%rsp),%eax
  4013e4:	69 c0 b9 6c 00 00    	imul   $0x6cb9,%eax,%eax
  4013ea:	89 44 24 dc          	mov    %eax,-0x24(%rsp)
  4013ee:	8b 44 24 ec          	mov    -0x14(%rsp),%eax
  4013f2:	69 c0 29 3c 00 00    	imul   $0x3c29,%eax,%eax
  4013f8:	89 44 24 ec          	mov    %eax,-0x14(%rsp)
  4013fc:	8b 44 24 f4          	mov    -0xc(%rsp),%eax
  401400:	69 c0 ff 18 00 00    	imul   $0x18ff,%eax,%eax
  401406:	89 44 24 f4          	mov    %eax,-0xc(%rsp)
  40140a:	8b 44 24 ec          	mov    -0x14(%rsp),%eax
  40140e:	69 c0 bd 04 00 00    	imul   $0x4bd,%eax,%eax
  401414:	89 44 24 ec          	mov    %eax,-0x14(%rsp)
  401418:	8b 44 24 d4          	mov    -0x2c(%rsp),%eax
  40141c:	69 c0 76 fb 00 00    	imul   $0xfb76,%eax,%eax
  401422:	89 44 24 d4          	mov    %eax,-0x2c(%rsp)
  401426:	8b 44 24 f0          	mov    -0x10(%rsp),%eax
  40142a:	69 c0 5c 45 00 00    	imul   $0x455c,%eax,%eax
  401430:	89 44 24 f0          	mov    %eax,-0x10(%rsp)
  401434:	8b 44 24 e0          	mov    -0x20(%rsp),%eax
  401438:	69 c0 c0 10 00 00    	imul   $0x10c0,%eax,%eax
  40143e:	89 44 24 e0          	mov    %eax,-0x20(%rsp)
  401442:	8b 44 24 d4          	mov    -0x2c(%rsp),%eax
  401446:	69 c0 29 30 00 00    	imul   $0x3029,%eax,%eax
  40144c:	89 44 24 d4          	mov    %eax,-0x2c(%rsp)
  401450:	8b 44 24 e0          	mov    -0x20(%rsp),%eax
  401454:	69 c0 50 dc 00 00    	imul   $0xdc50,%eax,%eax
  40145a:	89 44 24 e0          	mov    %eax,-0x20(%rsp)
  40145e:	8b 44 24 ec          	mov    -0x14(%rsp),%eax
  401462:	69 c0 7d 87 00 00    	imul   $0x877d,%eax,%eax
  401468:	89 44 24 ec          	mov    %eax,-0x14(%rsp)
  40146c:	8b 44 24 d8          	mov    -0x28(%rsp),%eax
  401470:	69 c0 b0 83 00 00    	imul   $0x83b0,%eax,%eax
  401476:	89 44 24 d8          	mov    %eax,-0x28(%rsp)
  40147a:	8b 44 24 d4          	mov    -0x2c(%rsp),%eax
  40147e:	69 c0 17 7a 00 00    	imul   $0x7a17,%eax,%eax
  401484:	89 44 24 d4          	mov    %eax,-0x2c(%rsp)
  401488:	8b 44 24 d0          	mov    -0x30(%rsp),%eax
  40148c:	69 c0 ad 4d 00 00    	imul   $0x4dad,%eax,%eax
  401492:	89 44 24 d0          	mov    %eax,-0x30(%rsp)
  401496:	8b 44 24 dc          	mov    -0x24(%rsp),%eax
  40149a:	69 c0 17 d6 00 00    	imul   $0xd617,%eax,%eax
  4014a0:	89 44 24 dc          	mov    %eax,-0x24(%rsp)
  4014a4:	8b 44 24 f4          	mov    -0xc(%rsp),%eax
  4014a8:	69 c0 26 39 00 00    	imul   $0x3926,%eax,%eax
  4014ae:	89 44 24 f4          	mov    %eax,-0xc(%rsp)
  4014b2:	8b 44 24 d4          	mov    -0x2c(%rsp),%eax
  4014b6:	69 c0 71 20 00 00    	imul   $0x2071,%eax,%eax
  4014bc:	89 44 24 d4          	mov    %eax,-0x2c(%rsp)
  4014c0:	8b 44 24 e8          	mov    -0x18(%rsp),%eax
  4014c4:	69 c0 b7 4b 00 00    	imul   $0x4bb7,%eax,%eax
  4014ca:	89 44 24 e8          	mov    %eax,-0x18(%rsp)
  4014ce:	8b 44 24 e8          	mov    -0x18(%rsp),%eax
  4014d2:	69 c0 76 23 00 00    	imul   $0x2376,%eax,%eax
  4014d8:	89 44 24 e8          	mov    %eax,-0x18(%rsp)
  4014dc:	8b 44 24 e8          	mov    -0x18(%rsp),%eax
  4014e0:	69 c0 cd 3c 00 00    	imul   $0x3ccd,%eax,%eax
  4014e6:	89 44 24 e8          	mov    %eax,-0x18(%rsp)
  4014ea:	8b 44 24 ec          	mov    -0x14(%rsp),%eax
  4014ee:	69 c0 67 c4 00 00    	imul   $0xc467,%eax,%eax
  4014f4:	89 44 24 ec          	mov    %eax,-0x14(%rsp)
  4014f8:	8b 44 24 d4          	mov    -0x2c(%rsp),%eax
  4014fc:	69 c0 39 a1 00 00    	imul   $0xa139,%eax,%eax
  401502:	89 44 24 d4          	mov    %eax,-0x2c(%rsp)
  401506:	8b 44 24 e4          	mov    -0x1c(%rsp),%eax
  40150a:	69 c0 0f b3 00 00    	imul   $0xb30f,%eax,%eax
  401510:	89 44 24 e4          	mov    %eax,-0x1c(%rsp)
  401514:	8b 44 24 ec          	mov    -0x14(%rsp),%eax
  401518:	69 c0 d3 eb 00 00    	imul   $0xebd3,%eax,%eax
  40151e:	89 44 24 ec          	mov    %eax,-0x14(%rsp)
  401522:	8b 44 24 e4          	mov    -0x1c(%rsp),%eax
  401526:	69 c0 bc c9 00 00    	imul   $0xc9bc,%eax,%eax
  40152c:	89 44 24 e4          	mov    %eax,-0x1c(%rsp)
  401530:	8b 44 24 ec          	mov    -0x14(%rsp),%eax
  401534:	69 c0 9d c2 00 00    	imul   $0xc29d,%eax,%eax
  40153a:	89 44 24 ec          	mov    %eax,-0x14(%rsp)
  40153e:	8b 44 24 dc          	mov    -0x24(%rsp),%eax
  401542:	69 c0 25 6e 00 00    	imul   $0x6e25,%eax,%eax
  401548:	89 44 24 dc          	mov    %eax,-0x24(%rsp)
  40154c:	8b 44 24 e0          	mov    -0x20(%rsp),%eax
  401550:	69 c0 ea 0c 00 00    	imul   $0xcea,%eax,%eax
  401556:	89 44 24 e0          	mov    %eax,-0x20(%rsp)
  40155a:	8b 44 24 f4          	mov    -0xc(%rsp),%eax
  40155e:	69 c0 b2 6c 00 00    	imul   $0x6cb2,%eax,%eax
  401564:	89 44 24 f4          	mov    %eax,-0xc(%rsp)
  401568:	8b 44 24 dc          	mov    -0x24(%rsp),%eax
  40156c:	69 c0 5a 08 00 00    	imul   $0x85a,%eax,%eax
  401572:	89 44 24 dc          	mov    %eax,-0x24(%rsp)
  401576:	8b 44 24 e8          	mov    -0x18(%rsp),%eax
  40157a:	69 c0 a1 5c 00 00    	imul   $0x5ca1,%eax,%eax
  401580:	89 44 24 e8          	mov    %eax,-0x18(%rsp)
  401584:	8b 44 24 e0          	mov    -0x20(%rsp),%eax
  401588:	69 c0 7e e8 00 00    	imul   $0xe87e,%eax,%eax
  40158e:	89 44 24 e0          	mov    %eax,-0x20(%rsp)
  401592:	8b 44 24 f4          	mov    -0xc(%rsp),%eax
  401596:	69 c0 60 e7 00 00    	imul   $0xe760,%eax,%eax
  40159c:	89 44 24 f4          	mov    %eax,-0xc(%rsp)
  4015a0:	8b 44 24 f0          	mov    -0x10(%rsp),%eax
  4015a4:	69 c0 ac d9 00 00    	imul   $0xd9ac,%eax,%eax
  4015aa:	89 44 24 f0          	mov    %eax,-0x10(%rsp)
  4015ae:	8b 44 24 ec          	mov    -0x14(%rsp),%eax
  4015b2:	69 c0 eb 98 00 00    	imul   $0x98eb,%eax,%eax
  4015b8:	89 44 24 ec          	mov    %eax,-0x14(%rsp)
  4015bc:	8b 44 24 d4          	mov    -0x2c(%rsp),%eax
  4015c0:	69 c0 0a 33 00 00    	imul   $0x330a,%eax,%eax
  4015c6:	89 44 24 d4          	mov    %eax,-0x2c(%rsp)
  4015ca:	8b 44 24 dc          	mov    -0x24(%rsp),%eax
  4015ce:	69 c0 bc 4e 00 00    	imul   $0x4ebc,%eax,%eax
  4015d4:	89 44 24 dc          	mov    %eax,-0x24(%rsp)
  4015d8:	8b 44 24 e0          	mov    -0x20(%rsp),%eax
  4015dc:	69 c0 16 67 00 00    	imul   $0x6716,%eax,%eax
  4015e2:	89 44 24 e0          	mov    %eax,-0x20(%rsp)
  4015e6:	8b 44 24 d8          	mov    -0x28(%rsp),%eax
  4015ea:	69 c0 3c 86 00 00    	imul   $0x863c,%eax,%eax
  4015f0:	89 44 24 d8          	mov    %eax,-0x28(%rsp)
  4015f4:	8b 44 24 f4          	mov    -0xc(%rsp),%eax
  4015f8:	69 c0 05 e5 00 00    	imul   $0xe505,%eax,%eax
  4015fe:	89 44 24 f4          	mov    %eax,-0xc(%rsp)
  401602:	8b 44 24 e0          	mov    -0x20(%rsp),%eax
  401606:	69 c0 0d 1b 00 00    	imul   $0x1b0d,%eax,%eax
  40160c:	89 44 24 e0          	mov    %eax,-0x20(%rsp)
  401610:	8b 44 24 d8          	mov    -0x28(%rsp),%eax
  401614:	69 c0 32 a1 00 00    	imul   $0xa132,%eax,%eax
  40161a:	89 44 24 d8          	mov    %eax,-0x28(%rsp)
  40161e:	8b 44 24 f0          	mov    -0x10(%rsp),%eax
  401622:	69 c0 ef ed 00 00    	imul   $0xedef,%eax,%eax
  401628:	89 44 24 f0          	mov    %eax,-0x10(%rsp)
  40162c:	8b 44 24 dc          	mov    -0x24(%rsp),%eax
  401630:	69 c0 6e 71 00 00    	imul   $0x716e,%eax,%eax
  401636:	89 44 24 dc          	mov    %eax,-0x24(%rsp)
  40163a:	8b 44 24 d4          	mov    -0x2c(%rsp),%eax
  40163e:	69 c0 b4 08 00 00    	imul   $0x8b4,%eax,%eax
  401644:	89 44 24 d4          	mov    %eax,-0x2c(%rsp)
  401648:	8b 44 24 d4          	mov    -0x2c(%rsp),%eax
  40164c:	69 c0 6a 9d 00 00    	imul   $0x9d6a,%eax,%eax
  401652:	89 44 24 d4          	mov    %eax,-0x2c(%rsp)
  401656:	8b 44 24 d8          	mov    -0x28(%rsp),%eax
  40165a:	69 c0 49 bb 00 00    	imul   $0xbb49,%eax,%eax
  401660:	89 44 24 d8          	mov    %eax,-0x28(%rsp)
  401664:	8b 44 24 ec          	mov    -0x14(%rsp),%eax
  401668:	69 c0 67 e2 00 00    	imul   $0xe267,%eax,%eax
  40166e:	89 44 24 ec          	mov    %eax,-0x14(%rsp)
  401672:	8b 44 24 ec          	mov    -0x14(%rsp),%eax
  401676:	69 c0 1e ba 00 00    	imul   $0xba1e,%eax,%eax
  40167c:	89 44 24 ec          	mov    %eax,-0x14(%rsp)
  401680:	8b 44 24 d4          	mov    -0x2c(%rsp),%eax
  401684:	69 c0 80 ad 00 00    	imul   $0xad80,%eax,%eax
  40168a:	89 44 24 d4          	mov    %eax,-0x2c(%rsp)
  40168e:	8b 44 24 d8          	mov    -0x28(%rsp),%eax
  401692:	69 c0 8c d2 00 00    	imul   $0xd28c,%eax,%eax
  401698:	89 44 24 d8          	mov    %eax,-0x28(%rsp)
  40169c:	8b 44 24 d8          	mov    -0x28(%rsp),%eax
  4016a0:	69 c0 5c b0 00 00    	imul   $0xb05c,%eax,%eax
  4016a6:	89 44 24 d8          	mov    %eax,-0x28(%rsp)
  4016aa:	8b 44 24 d4          	mov    -0x2c(%rsp),%eax
  4016ae:	69 c0 ce b4 00 00    	imul   $0xb4ce,%eax,%eax
  4016b4:	89 44 24 d4          	mov    %eax,-0x2c(%rsp)
  4016b8:	8b 44 24 f0          	mov    -0x10(%rsp),%eax
  4016bc:	69 c0 14 23 00 00    	imul   $0x2314,%eax,%eax
  4016c2:	89 44 24 f0          	mov    %eax,-0x10(%rsp)
  4016c6:	8b 44 24 f4          	mov    -0xc(%rsp),%eax
  4016ca:	69 c0 5d 6a 00 00    	imul   $0x6a5d,%eax,%eax
  4016d0:	89 44 24 f4          	mov    %eax,-0xc(%rsp)
  4016d4:	8b 44 24 d8          	mov    -0x28(%rsp),%eax
  4016d8:	69 c0 03 8b 00 00    	imul   $0x8b03,%eax,%eax
  4016de:	89 44 24 d8          	mov    %eax,-0x28(%rsp)
  4016e2:	8b 44 24 f0          	mov    -0x10(%rsp),%eax
  4016e6:	69 c0 bb af 00 00    	imul   $0xafbb,%eax,%eax
  4016ec:	89 44 24 f0          	mov    %eax,-0x10(%rsp)
  4016f0:	8b 44 24 d8          	mov    -0x28(%rsp),%eax
  4016f4:	69 c0 9d 0e 00 00    	imul   $0xe9d,%eax,%eax
  4016fa:	89 44 24 d8          	mov    %eax,-0x28(%rsp)
  4016fe:	8b 44 24 d4          	mov    -0x2c(%rsp),%eax
  401702:	69 c0 52 da 00 00    	imul   $0xda52,%eax,%eax
  401708:	89 44 24 d4          	mov    %eax,-0x2c(%rsp)
  40170c:	ba 00 00 00 00       	mov    $0x0,%edx
  401711:	b8 00 00 00 00       	mov    $0x0,%eax
  401716:	89 d1                	mov    %edx,%ecx
  401718:	8b 4c 8c d0          	mov    -0x30(%rsp,%rcx,4),%ecx
  40171c:	01 c8                	add    %ecx,%eax
  40171e:	83 c2 01             	add    $0x1,%edx
  401721:	83 fa 0a             	cmp    $0xa,%edx
  401724:	75 f0                	jne    401716 <scramble+0x49f>
  401726:	c3                   	retq   

0000000000401727 <getbuf>:
  401727:	48 83 ec 18          	sub    $0x18,%rsp
  40172b:	48 89 e7             	mov    %rsp,%rdi
  40172e:	e8 be 01 00 00       	callq  4018f1 <Gets>
  401733:	b8 01 00 00 00       	mov    $0x1,%eax
  401738:	48 83 c4 18          	add    $0x18,%rsp
  40173c:	c3                   	retq   

000000000040173d <touch1>:
  40173d:	48 83 ec 08          	sub    $0x8,%rsp
  401741:	c7 05 b1 2d 20 00 01 	movl   $0x1,0x202db1(%rip)        # 6044fc <vlevel>
  401748:	00 00 00 
  40174b:	bf 62 30 40 00       	mov    $0x403062,%edi
  401750:	e8 1b f5 ff ff       	callq  400c70 <puts@plt>
  401755:	bf 01 00 00 00       	mov    $0x1,%edi
  40175a:	e8 fb 03 00 00       	callq  401b5a <validate>
  40175f:	bf 00 00 00 00       	mov    $0x0,%edi
  401764:	e8 67 f6 ff ff       	callq  400dd0 <exit@plt>

0000000000401769 <touch2>:
  401769:	48 83 ec 08          	sub    $0x8,%rsp
  40176d:	89 fe                	mov    %edi,%esi
  40176f:	c7 05 83 2d 20 00 02 	movl   $0x2,0x202d83(%rip)        # 6044fc <vlevel>
  401776:	00 00 00 
  401779:	39 3d 85 2d 20 00    	cmp    %edi,0x202d85(%rip)        # 604504 <cookie>
  40177f:	74 23                	je     4017a4 <touch2+0x3b>
  401781:	bf b0 30 40 00       	mov    $0x4030b0,%edi
  401786:	b8 00 00 00 00       	mov    $0x0,%eax
  40178b:	e8 10 f5 ff ff       	callq  400ca0 <printf@plt>
  401790:	bf 02 00 00 00       	mov    $0x2,%edi
  401795:	e8 72 04 00 00       	callq  401c0c <fail>
  40179a:	bf 00 00 00 00       	mov    $0x0,%edi
  40179f:	e8 2c f6 ff ff       	callq  400dd0 <exit@plt>
  4017a4:	bf 88 30 40 00       	mov    $0x403088,%edi
  4017a9:	b8 00 00 00 00       	mov    $0x0,%eax
  4017ae:	e8 ed f4 ff ff       	callq  400ca0 <printf@plt>
  4017b3:	bf 02 00 00 00       	mov    $0x2,%edi
  4017b8:	e8 9d 03 00 00       	callq  401b5a <validate>
  4017bd:	eb db                	jmp    40179a <touch2+0x31>

00000000004017bf <hexmatch>:
  4017bf:	41 54                	push   %r12
  4017c1:	55                   	push   %rbp
  4017c2:	53                   	push   %rbx
  4017c3:	48 83 ec 70          	sub    $0x70,%rsp
  4017c7:	89 fd                	mov    %edi,%ebp
  4017c9:	48 89 f3             	mov    %rsi,%rbx
  4017cc:	e8 6f f5 ff ff       	callq  400d40 <random@plt>
  4017d1:	48 89 c1             	mov    %rax,%rcx
  4017d4:	48 ba 0b d7 a3 70 3d 	movabs $0xa3d70a3d70a3d70b,%rdx
  4017db:	0a d7 a3 
  4017de:	48 f7 ea             	imul   %rdx
  4017e1:	48 01 ca             	add    %rcx,%rdx
  4017e4:	48 c1 fa 06          	sar    $0x6,%rdx
  4017e8:	48 89 c8             	mov    %rcx,%rax
  4017eb:	48 c1 f8 3f          	sar    $0x3f,%rax
  4017ef:	48 29 c2             	sub    %rax,%rdx
  4017f2:	48 8d 04 92          	lea    (%rdx,%rdx,4),%rax
  4017f6:	48 8d 04 80          	lea    (%rax,%rax,4),%rax
  4017fa:	48 c1 e0 02          	shl    $0x2,%rax
  4017fe:	48 29 c1             	sub    %rax,%rcx
  401801:	4c 8d 24 0c          	lea    (%rsp,%rcx,1),%r12
  401805:	89 ea                	mov    %ebp,%edx
  401807:	be 7f 30 40 00       	mov    $0x40307f,%esi
  40180c:	4c 89 e7             	mov    %r12,%rdi
  40180f:	b8 00 00 00 00       	mov    $0x0,%eax
  401814:	e8 a7 f5 ff ff       	callq  400dc0 <sprintf@plt>
  401819:	ba 09 00 00 00       	mov    $0x9,%edx
  40181e:	4c 89 e6             	mov    %r12,%rsi
  401821:	48 89 df             	mov    %rbx,%rdi
  401824:	e8 27 f4 ff ff       	callq  400c50 <strncmp@plt>
  401829:	85 c0                	test   %eax,%eax
  40182b:	0f 94 c0             	sete   %al
  40182e:	0f b6 c0             	movzbl %al,%eax
  401831:	48 83 c4 70          	add    $0x70,%rsp
  401835:	5b                   	pop    %rbx
  401836:	5d                   	pop    %rbp
  401837:	41 5c                	pop    %r12
  401839:	c3                   	retq   

000000000040183a <touch3>:
  40183a:	53                   	push   %rbx
  40183b:	48 89 fb             	mov    %rdi,%rbx
  40183e:	c7 05 b4 2c 20 00 03 	movl   $0x3,0x202cb4(%rip)        # 6044fc <vlevel>
  401845:	00 00 00 
  401848:	48 89 fe             	mov    %rdi,%rsi
  40184b:	8b 3d b3 2c 20 00    	mov    0x202cb3(%rip),%edi        # 604504 <cookie>
  401851:	e8 69 ff ff ff       	callq  4017bf <hexmatch>
  401856:	85 c0                	test   %eax,%eax
  401858:	74 26                	je     401880 <touch3+0x46>
  40185a:	48 89 de             	mov    %rbx,%rsi
  40185d:	bf d8 30 40 00       	mov    $0x4030d8,%edi
  401862:	b8 00 00 00 00       	mov    $0x0,%eax
  401867:	e8 34 f4 ff ff       	callq  400ca0 <printf@plt>
  40186c:	bf 03 00 00 00       	mov    $0x3,%edi
  401871:	e8 e4 02 00 00       	callq  401b5a <validate>
  401876:	bf 00 00 00 00       	mov    $0x0,%edi
  40187b:	e8 50 f5 ff ff       	callq  400dd0 <exit@plt>
  401880:	48 89 de             	mov    %rbx,%rsi
  401883:	bf 00 31 40 00       	mov    $0x403100,%edi
  401888:	b8 00 00 00 00       	mov    $0x0,%eax
  40188d:	e8 0e f4 ff ff       	callq  400ca0 <printf@plt>
  401892:	bf 03 00 00 00       	mov    $0x3,%edi
  401897:	e8 70 03 00 00       	callq  401c0c <fail>
  40189c:	eb d8                	jmp    401876 <touch3+0x3c>

000000000040189e <test>:
  40189e:	48 83 ec 08          	sub    $0x8,%rsp      
  4018a2:	b8 00 00 00 00       	mov    $0x0,%eax
  4018a7:	e8 7b fe ff ff       	callq  401727 <getbuf>                  xx xx xx xx xx xx xx xx (00 00 00 00 3d 17 40 00)
  4018ac:	89 c6                	mov    %eax,%esi
  4018ae:	bf 28 31 40 00       	mov    $0x403128,%edi
  4018b3:	b8 00 00 00 00       	mov    $0x0,%eax
  4018b8:	e8 e3 f3 ff ff       	callq  400ca0 <printf@plt>    
  4018bd:	48 83 c4 08          	add    $0x8,%rsp
  4018c1:	c3                   	retq   

00000000004018c2 <check_fail>:
  4018c2:	48 83 ec 08          	sub    $0x8,%rsp
  4018c6:	0f be 35 5b 38 20 00 	movsbl 0x20385b(%rip),%esi        # 605128 <target_prefix>
  4018cd:	b9 20 45 60 00       	mov    $0x604520,%ecx
  4018d2:	8b 15 20 2c 20 00    	mov    0x202c20(%rip),%edx        # 6044f8 <check_level>
  4018d8:	bf 4b 31 40 00       	mov    $0x40314b,%edi
  4018dd:	b8 00 00 00 00       	mov    $0x0,%eax
  4018e2:	e8 b9 f3 ff ff       	callq  400ca0 <printf@plt>
  4018e7:	bf 01 00 00 00       	mov    $0x1,%edi
  4018ec:	e8 df f4 ff ff       	callq  400dd0 <exit@plt>

00000000004018f1 <Gets>:
  4018f1:	55                   	push   %rbp
  4018f2:	53                   	push   %rbx
  4018f3:	48 83 ec 08          	sub    $0x8,%rsp
  4018f7:	48 89 fd             	mov    %rdi,%rbp
  4018fa:	c7 05 20 38 20 00 00 	movl   $0x0,0x203820(%rip)        # 605124 <gets_cnt>
  401901:	00 00 00 
  401904:	48 89 fb             	mov    %rdi,%rbx
  401907:	48 8b 3d e2 2b 20 00 	mov    0x202be2(%rip),%rdi        # 6044f0 <infile>
  40190e:	e8 dd f4 ff ff       	callq  400df0 <getc@plt>
  401913:	83 f8 0a             	cmp    $0xa,%eax
  401916:	74 65                	je     40197d <Gets+0x8c>
  401918:	83 f8 ff             	cmp    $0xffffffff,%eax
  40191b:	74 60                	je     40197d <Gets+0x8c>
  40191d:	48 83 c3 01          	add    $0x1,%rbx
  401921:	88 43 ff             	mov    %al,-0x1(%rbx)
  401924:	8b 15 fa 37 20 00    	mov    0x2037fa(%rip),%edx        # 605124 <gets_cnt>
  40192a:	81 fa ff 03 00 00    	cmp    $0x3ff,%edx
  401930:	7f d5                	jg     401907 <Gets+0x16>
  401932:	8d 0c 52             	lea    (%rdx,%rdx,2),%ecx
  401935:	48 63 f9             	movslq %ecx,%rdi
  401938:	89 c6                	mov    %eax,%esi
  40193a:	40 c0 ee 04          	shr    $0x4,%sil
  40193e:	83 e6 0f             	and    $0xf,%esi
  401941:	0f b6 b6 50 34 40 00 	movzbl 0x403450(%rsi),%esi
  401948:	40 88 b7 20 45 60 00 	mov    %sil,0x604520(%rdi)
  40194f:	8d 71 01             	lea    0x1(%rcx),%esi
  401952:	48 63 f6             	movslq %esi,%rsi
  401955:	83 e0 0f             	and    $0xf,%eax
  401958:	0f b6 80 50 34 40 00 	movzbl 0x403450(%rax),%eax
  40195f:	88 86 20 45 60 00    	mov    %al,0x604520(%rsi)
  401965:	83 c1 02             	add    $0x2,%ecx
  401968:	48 63 c9             	movslq %ecx,%rcx
  40196b:	c6 81 20 45 60 00 20 	movb   $0x20,0x604520(%rcx)
  401972:	83 c2 01             	add    $0x1,%edx
  401975:	89 15 a9 37 20 00    	mov    %edx,0x2037a9(%rip)        # 605124 <gets_cnt>
  40197b:	eb 8a                	jmp    401907 <Gets+0x16>
  40197d:	c6 03 00             	movb   $0x0,(%rbx)
  401980:	8b 05 9e 37 20 00    	mov    0x20379e(%rip),%eax        # 605124 <gets_cnt>
  401986:	8d 04 40             	lea    (%rax,%rax,2),%eax
  401989:	48 98                	cltq   
  40198b:	c6 80 20 45 60 00 00 	movb   $0x0,0x604520(%rax)
  401992:	48 89 e8             	mov    %rbp,%rax
  401995:	48 83 c4 08          	add    $0x8,%rsp
  401999:	5b                   	pop    %rbx
  40199a:	5d                   	pop    %rbp
  40199b:	c3                   	retq   

000000000040199c <notify_server>:
  40199c:	83 3d 65 2b 20 00 00 	cmpl   $0x0,0x202b65(%rip)        # 604508 <is_checker>
  4019a3:	0f 85 b0 01 00 00    	jne    401b59 <notify_server+0x1bd>
  4019a9:	48 81 ec 08 40 00 00 	sub    $0x4008,%rsp
  4019b0:	81 3d 6a 37 20 00 9c 	cmpl   $0x1f9c,0x20376a(%rip)        # 605124 <gets_cnt>
  4019b7:	1f 00 00 
  4019ba:	7f 71                	jg     401a2d <notify_server+0x91>
  4019bc:	44 0f be 0d 64 37 20 	movsbl 0x203764(%rip),%r9d        # 605128 <target_prefix>
  4019c3:	00 
  4019c4:	83 3d bd 2a 20 00 00 	cmpl   $0x0,0x202abd(%rip)        # 604488 <notify>
  4019cb:	41 b8 ff ff ff ff    	mov    $0xffffffff,%r8d
  4019d1:	44 0f 45 05 27 2b 20 	cmovne 0x202b27(%rip),%r8d        # 604500 <authkey>
  4019d8:	00 
  4019d9:	85 ff                	test   %edi,%edi
  4019db:	0f 85 ee 00 00 00    	jne    401acf <notify_server+0x133>
  4019e1:	68 20 45 60 00       	pushq  $0x604520
  4019e6:	56                   	push   %rsi
  4019e7:	b9 61 31 40 00       	mov    $0x403161,%ecx
  4019ec:	8b 15 56 27 20 00    	mov    0x202756(%rip),%edx        # 604148 <target_id>
  4019f2:	be b6 31 40 00       	mov    $0x4031b6,%esi
  4019f7:	48 8d bc 24 10 20 00 	lea    0x2010(%rsp),%rdi
  4019fe:	00 
  4019ff:	b8 00 00 00 00       	mov    $0x0,%eax
  401a04:	e8 b7 f3 ff ff       	callq  400dc0 <sprintf@plt>
  401a09:	48 83 c4 10          	add    $0x10,%rsp
  401a0d:	be 61 31 40 00       	mov    $0x403161,%esi
  401a12:	83 3d 6f 2a 20 00 00 	cmpl   $0x0,0x202a6f(%rip)        # 604488 <notify>
  401a19:	74 47                	je     401a62 <notify_server+0xc6>
  401a1b:	bf 81 31 40 00       	mov    $0x403181,%edi
  401a20:	e8 4b f2 ff ff       	callq  400c70 <puts@plt>
  401a25:	48 81 c4 08 40 00 00 	add    $0x4008,%rsp
  401a2c:	c3                   	retq   
  401a2d:	bf 80 32 40 00       	mov    $0x403280,%edi
  401a32:	b8 00 00 00 00       	mov    $0x0,%eax
  401a37:	e8 64 f2 ff ff       	callq  400ca0 <printf@plt>
  401a3c:	bf 01 00 00 00       	mov    $0x1,%edi
  401a41:	e8 8a f3 ff ff       	callq  400dd0 <exit@plt>
  401a46:	48 89 e6             	mov    %rsp,%rsi
  401a49:	bf 6b 31 40 00       	mov    $0x40316b,%edi
  401a4e:	b8 00 00 00 00       	mov    $0x0,%eax
  401a53:	e8 48 f2 ff ff       	callq  400ca0 <printf@plt>
  401a58:	bf 01 00 00 00       	mov    $0x1,%edi
  401a5d:	e8 6e f3 ff ff       	callq  400dd0 <exit@plt>
  401a62:	bf e8 32 40 00       	mov    $0x4032e8,%edi
  401a67:	b8 00 00 00 00       	mov    $0x0,%eax
  401a6c:	e8 2f f2 ff ff       	callq  400ca0 <printf@plt>
  401a71:	48 8b 35 c8 26 20 00 	mov    0x2026c8(%rip),%rsi        # 604140 <user_id>
  401a78:	bf 88 31 40 00       	mov    $0x403188,%edi
  401a7d:	b8 00 00 00 00       	mov    $0x0,%eax
  401a82:	e8 19 f2 ff ff       	callq  400ca0 <printf@plt>
  401a87:	48 8b 35 ca 26 20 00 	mov    0x2026ca(%rip),%rsi        # 604158 <course>
  401a8e:	bf 95 31 40 00       	mov    $0x403195,%edi
  401a93:	b8 00 00 00 00       	mov    $0x0,%eax
  401a98:	e8 03 f2 ff ff       	callq  400ca0 <printf@plt>
  401a9d:	48 8b 35 ac 26 20 00 	mov    0x2026ac(%rip),%rsi        # 604150 <lab>
  401aa4:	bf a1 31 40 00       	mov    $0x4031a1,%edi
  401aa9:	b8 00 00 00 00       	mov    $0x0,%eax
  401aae:	e8 ed f1 ff ff       	callq  400ca0 <printf@plt>
  401ab3:	48 8d b4 24 00 20 00 	lea    0x2000(%rsp),%rsi
  401aba:	00 
  401abb:	bf aa 31 40 00       	mov    $0x4031aa,%edi
  401ac0:	b8 00 00 00 00       	mov    $0x0,%eax
  401ac5:	e8 d6 f1 ff ff       	callq  400ca0 <printf@plt>
  401aca:	e9 56 ff ff ff       	jmpq   401a25 <notify_server+0x89>
  401acf:	68 20 45 60 00       	pushq  $0x604520
  401ad4:	56                   	push   %rsi
  401ad5:	b9 66 31 40 00       	mov    $0x403166,%ecx
  401ada:	8b 15 68 26 20 00    	mov    0x202668(%rip),%edx        # 604148 <target_id>
  401ae0:	be b6 31 40 00       	mov    $0x4031b6,%esi
  401ae5:	48 8d bc 24 10 20 00 	lea    0x2010(%rsp),%rdi
  401aec:	00 
  401aed:	b8 00 00 00 00       	mov    $0x0,%eax
  401af2:	e8 c9 f2 ff ff       	callq  400dc0 <sprintf@plt>
  401af7:	48 83 c4 10          	add    $0x10,%rsp
  401afb:	be 66 31 40 00       	mov    $0x403166,%esi
  401b00:	83 3d 81 29 20 00 00 	cmpl   $0x0,0x202981(%rip)        # 604488 <notify>
  401b07:	0f 84 55 ff ff ff    	je     401a62 <notify_server+0xc6>
  401b0d:	49 89 e1             	mov    %rsp,%r9
  401b10:	41 b8 00 00 00 00    	mov    $0x0,%r8d
  401b16:	48 8d 8c 24 00 20 00 	lea    0x2000(%rsp),%rcx
  401b1d:	00 
  401b1e:	48 8b 15 2b 26 20 00 	mov    0x20262b(%rip),%rdx        # 604150 <lab>
  401b25:	48 8b 35 2c 26 20 00 	mov    0x20262c(%rip),%rsi        # 604158 <course>
  401b2c:	48 8b 3d 0d 26 20 00 	mov    0x20260d(%rip),%rdi        # 604140 <user_id>
  401b33:	e8 9c 0e 00 00       	callq  4029d4 <driver_post>
  401b38:	85 c0                	test   %eax,%eax
  401b3a:	0f 88 06 ff ff ff    	js     401a46 <notify_server+0xaa>
  401b40:	bf b0 32 40 00       	mov    $0x4032b0,%edi
  401b45:	e8 26 f1 ff ff       	callq  400c70 <puts@plt>
  401b4a:	bf 77 31 40 00       	mov    $0x403177,%edi
  401b4f:	e8 1c f1 ff ff       	callq  400c70 <puts@plt>
  401b54:	e9 cc fe ff ff       	jmpq   401a25 <notify_server+0x89>
  401b59:	c3                   	retq   

0000000000401b5a <validate>:
  401b5a:	53                   	push   %rbx
  401b5b:	89 fb                	mov    %edi,%ebx
  401b5d:	83 3d a4 29 20 00 00 	cmpl   $0x0,0x2029a4(%rip)        # 604508 <is_checker>
  401b64:	74 60                	je     401bc6 <validate+0x6c>
  401b66:	39 3d 90 29 20 00    	cmp    %edi,0x202990(%rip)        # 6044fc <vlevel>
  401b6c:	75 29                	jne    401b97 <validate+0x3d>
  401b6e:	8b 35 84 29 20 00    	mov    0x202984(%rip),%esi        # 6044f8 <check_level>
  401b74:	39 fe                	cmp    %edi,%esi
  401b76:	75 33                	jne    401bab <validate+0x51>
  401b78:	0f be 35 a9 35 20 00 	movsbl 0x2035a9(%rip),%esi        # 605128 <target_prefix>
  401b7f:	b9 20 45 60 00       	mov    $0x604520,%ecx
  401b84:	89 fa                	mov    %edi,%edx
  401b86:	bf f0 31 40 00       	mov    $0x4031f0,%edi
  401b8b:	b8 00 00 00 00       	mov    $0x0,%eax
  401b90:	e8 0b f1 ff ff       	callq  400ca0 <printf@plt>
  401b95:	5b                   	pop    %rbx
  401b96:	c3                   	retq   
  401b97:	bf d2 31 40 00       	mov    $0x4031d2,%edi
  401b9c:	e8 cf f0 ff ff       	callq  400c70 <puts@plt>
  401ba1:	b8 00 00 00 00       	mov    $0x0,%eax
  401ba6:	e8 17 fd ff ff       	callq  4018c2 <check_fail>
  401bab:	89 fa                	mov    %edi,%edx
  401bad:	bf 10 33 40 00       	mov    $0x403310,%edi
  401bb2:	b8 00 00 00 00       	mov    $0x0,%eax
  401bb7:	e8 e4 f0 ff ff       	callq  400ca0 <printf@plt>
  401bbc:	b8 00 00 00 00       	mov    $0x0,%eax
  401bc1:	e8 fc fc ff ff       	callq  4018c2 <check_fail>
  401bc6:	39 3d 30 29 20 00    	cmp    %edi,0x202930(%rip)        # 6044fc <vlevel>
  401bcc:	74 18                	je     401be6 <validate+0x8c>
  401bce:	bf d2 31 40 00       	mov    $0x4031d2,%edi
  401bd3:	e8 98 f0 ff ff       	callq  400c70 <puts@plt>
  401bd8:	89 de                	mov    %ebx,%esi
  401bda:	bf 00 00 00 00       	mov    $0x0,%edi
  401bdf:	e8 b8 fd ff ff       	callq  40199c <notify_server>
  401be4:	eb af                	jmp    401b95 <validate+0x3b>
  401be6:	0f be 15 3b 35 20 00 	movsbl 0x20353b(%rip),%edx        # 605128 <target_prefix>
  401bed:	89 fe                	mov    %edi,%esi
  401bef:	bf 38 33 40 00       	mov    $0x403338,%edi
  401bf4:	b8 00 00 00 00       	mov    $0x0,%eax
  401bf9:	e8 a2 f0 ff ff       	callq  400ca0 <printf@plt>
  401bfe:	89 de                	mov    %ebx,%esi
  401c00:	bf 01 00 00 00       	mov    $0x1,%edi
  401c05:	e8 92 fd ff ff       	callq  40199c <notify_server>
  401c0a:	eb 89                	jmp    401b95 <validate+0x3b>

0000000000401c0c <fail>:
  401c0c:	48 83 ec 08          	sub    $0x8,%rsp
  401c10:	83 3d f1 28 20 00 00 	cmpl   $0x0,0x2028f1(%rip)        # 604508 <is_checker>
  401c17:	75 11                	jne    401c2a <fail+0x1e>
  401c19:	89 fe                	mov    %edi,%esi
  401c1b:	bf 00 00 00 00       	mov    $0x0,%edi
  401c20:	e8 77 fd ff ff       	callq  40199c <notify_server>
  401c25:	48 83 c4 08          	add    $0x8,%rsp
  401c29:	c3                   	retq   
  401c2a:	b8 00 00 00 00       	mov    $0x0,%eax
  401c2f:	e8 8e fc ff ff       	callq  4018c2 <check_fail>

0000000000401c34 <bushandler>:
  401c34:	48 83 ec 08          	sub    $0x8,%rsp
  401c38:	83 3d c9 28 20 00 00 	cmpl   $0x0,0x2028c9(%rip)        # 604508 <is_checker>
  401c3f:	74 14                	je     401c55 <bushandler+0x21>
  401c41:	bf 05 32 40 00       	mov    $0x403205,%edi
  401c46:	e8 25 f0 ff ff       	callq  400c70 <puts@plt>
  401c4b:	b8 00 00 00 00       	mov    $0x0,%eax
  401c50:	e8 6d fc ff ff       	callq  4018c2 <check_fail>
  401c55:	bf 70 33 40 00       	mov    $0x403370,%edi
  401c5a:	e8 11 f0 ff ff       	callq  400c70 <puts@plt>
  401c5f:	bf 0f 32 40 00       	mov    $0x40320f,%edi
  401c64:	e8 07 f0 ff ff       	callq  400c70 <puts@plt>
  401c69:	be 00 00 00 00       	mov    $0x0,%esi
  401c6e:	bf 00 00 00 00       	mov    $0x0,%edi
  401c73:	e8 24 fd ff ff       	callq  40199c <notify_server>
  401c78:	bf 01 00 00 00       	mov    $0x1,%edi
  401c7d:	e8 4e f1 ff ff       	callq  400dd0 <exit@plt>

0000000000401c82 <seghandler>:
  401c82:	48 83 ec 08          	sub    $0x8,%rsp
  401c86:	83 3d 7b 28 20 00 00 	cmpl   $0x0,0x20287b(%rip)        # 604508 <is_checker>
  401c8d:	74 14                	je     401ca3 <seghandler+0x21>
  401c8f:	bf 25 32 40 00       	mov    $0x403225,%edi
  401c94:	e8 d7 ef ff ff       	callq  400c70 <puts@plt>
  401c99:	b8 00 00 00 00       	mov    $0x0,%eax
  401c9e:	e8 1f fc ff ff       	callq  4018c2 <check_fail>
  401ca3:	bf 90 33 40 00       	mov    $0x403390,%edi
  401ca8:	e8 c3 ef ff ff       	callq  400c70 <puts@plt>
  401cad:	bf 0f 32 40 00       	mov    $0x40320f,%edi
  401cb2:	e8 b9 ef ff ff       	callq  400c70 <puts@plt>
  401cb7:	be 00 00 00 00       	mov    $0x0,%esi
  401cbc:	bf 00 00 00 00       	mov    $0x0,%edi
  401cc1:	e8 d6 fc ff ff       	callq  40199c <notify_server>
  401cc6:	bf 01 00 00 00       	mov    $0x1,%edi
  401ccb:	e8 00 f1 ff ff       	callq  400dd0 <exit@plt>

0000000000401cd0 <illegalhandler>:
  401cd0:	48 83 ec 08          	sub    $0x8,%rsp
  401cd4:	83 3d 2d 28 20 00 00 	cmpl   $0x0,0x20282d(%rip)        # 604508 <is_checker>
  401cdb:	74 14                	je     401cf1 <illegalhandler+0x21>
  401cdd:	bf 38 32 40 00       	mov    $0x403238,%edi
  401ce2:	e8 89 ef ff ff       	callq  400c70 <puts@plt>
  401ce7:	b8 00 00 00 00       	mov    $0x0,%eax
  401cec:	e8 d1 fb ff ff       	callq  4018c2 <check_fail>
  401cf1:	bf b8 33 40 00       	mov    $0x4033b8,%edi
  401cf6:	e8 75 ef ff ff       	callq  400c70 <puts@plt>
  401cfb:	bf 0f 32 40 00       	mov    $0x40320f,%edi
  401d00:	e8 6b ef ff ff       	callq  400c70 <puts@plt>
  401d05:	be 00 00 00 00       	mov    $0x0,%esi
  401d0a:	bf 00 00 00 00       	mov    $0x0,%edi
  401d0f:	e8 88 fc ff ff       	callq  40199c <notify_server>
  401d14:	bf 01 00 00 00       	mov    $0x1,%edi
  401d19:	e8 b2 f0 ff ff       	callq  400dd0 <exit@plt>

0000000000401d1e <sigalrmhandler>:
  401d1e:	48 83 ec 08          	sub    $0x8,%rsp
  401d22:	83 3d df 27 20 00 00 	cmpl   $0x0,0x2027df(%rip)        # 604508 <is_checker>
  401d29:	74 14                	je     401d3f <sigalrmhandler+0x21>
  401d2b:	bf 4c 32 40 00       	mov    $0x40324c,%edi
  401d30:	e8 3b ef ff ff       	callq  400c70 <puts@plt>
  401d35:	b8 00 00 00 00       	mov    $0x0,%eax
  401d3a:	e8 83 fb ff ff       	callq  4018c2 <check_fail>
  401d3f:	be 05 00 00 00       	mov    $0x5,%esi
  401d44:	bf e8 33 40 00       	mov    $0x4033e8,%edi
  401d49:	b8 00 00 00 00       	mov    $0x0,%eax
  401d4e:	e8 4d ef ff ff       	callq  400ca0 <printf@plt>
  401d53:	be 00 00 00 00       	mov    $0x0,%esi
  401d58:	bf 00 00 00 00       	mov    $0x0,%edi
  401d5d:	e8 3a fc ff ff       	callq  40199c <notify_server>
  401d62:	bf 01 00 00 00       	mov    $0x1,%edi
  401d67:	e8 64 f0 ff ff       	callq  400dd0 <exit@plt>

0000000000401d6c <launch>:
  401d6c:	55                   	push   %rbp
  401d6d:	48 89 e5             	mov    %rsp,%rbp
  401d70:	48 89 fa             	mov    %rdi,%rdx
  401d73:	48 8d 47 17          	lea    0x17(%rdi),%rax
  401d77:	48 83 e0 f0          	and    $0xfffffffffffffff0,%rax
  401d7b:	48 29 c4             	sub    %rax,%rsp
  401d7e:	48 8d 7c 24 0f       	lea    0xf(%rsp),%rdi
  401d83:	48 83 e7 f0          	and    $0xfffffffffffffff0,%rdi
  401d87:	be f4 00 00 00       	mov    $0xf4,%esi
  401d8c:	e8 1f ef ff ff       	callq  400cb0 <memset@plt>
  401d91:	48 8b 05 08 27 20 00 	mov    0x202708(%rip),%rax        # 6044a0 <stdin@@GLIBC_2.2.5>
  401d98:	48 39 05 51 27 20 00 	cmp    %rax,0x202751(%rip)        # 6044f0 <infile>
  401d9f:	74 29                	je     401dca <launch+0x5e>
  401da1:	c7 05 51 27 20 00 00 	movl   $0x0,0x202751(%rip)        # 6044fc <vlevel>
  401da8:	00 00 00 
  401dab:	b8 00 00 00 00       	mov    $0x0,%eax
  401db0:	e8 e9 fa ff ff       	callq  40189e <test>
  401db5:	83 3d 4c 27 20 00 00 	cmpl   $0x0,0x20274c(%rip)        # 604508 <is_checker>
  401dbc:	75 1d                	jne    401ddb <launch+0x6f>
  401dbe:	bf 6c 32 40 00       	mov    $0x40326c,%edi
  401dc3:	e8 a8 ee ff ff       	callq  400c70 <puts@plt>
  401dc8:	c9                   	leaveq 
  401dc9:	c3                   	retq   
  401dca:	bf 54 32 40 00       	mov    $0x403254,%edi
  401dcf:	b8 00 00 00 00       	mov    $0x0,%eax
  401dd4:	e8 c7 ee ff ff       	callq  400ca0 <printf@plt>
  401dd9:	eb c6                	jmp    401da1 <launch+0x35>
  401ddb:	bf 61 32 40 00       	mov    $0x403261,%edi
  401de0:	e8 8b ee ff ff       	callq  400c70 <puts@plt>
  401de5:	b8 00 00 00 00       	mov    $0x0,%eax
  401dea:	e8 d3 fa ff ff       	callq  4018c2 <check_fail>

0000000000401def <stable_launch>:
  401def:	48 83 ec 08          	sub    $0x8,%rsp
  401df3:	48 89 3d ee 26 20 00 	mov    %rdi,0x2026ee(%rip)        # 6044e8 <global_offset>
  401dfa:	41 b9 00 00 00 00    	mov    $0x0,%r9d
  401e00:	41 b8 00 00 00 00    	mov    $0x0,%r8d
  401e06:	b9 32 01 00 00       	mov    $0x132,%ecx
  401e0b:	ba 07 00 00 00       	mov    $0x7,%edx
  401e10:	be 00 00 10 00       	mov    $0x100000,%esi
  401e15:	bf 00 60 58 55       	mov    $0x55586000,%edi
  401e1a:	e8 71 ee ff ff       	callq  400c90 <mmap@plt>
  401e1f:	48 3d 00 60 58 55    	cmp    $0x55586000,%rax
  401e25:	75 4a                	jne    401e71 <stable_launch+0x82>
  401e27:	48 c7 05 fe 32 20 00 	movq   $0x55685ff8,0x2032fe(%rip)        # 605130 <stack_top>
  401e2e:	f8 5f 68 55 
  401e32:	ba f8 5f 68 55       	mov    $0x55685ff8,%edx
  401e37:	48 89 e0             	mov    %rsp,%rax
  401e3a:	48 89 d4             	mov    %rdx,%rsp
  401e3d:	48 89 c2             	mov    %rax,%rdx
  401e40:	48 89 15 99 26 20 00 	mov    %rdx,0x202699(%rip)        # 6044e0 <global_save_stack>
  401e47:	48 8b 3d 9a 26 20 00 	mov    0x20269a(%rip),%rdi        # 6044e8 <global_offset>
  401e4e:	e8 19 ff ff ff       	callq  401d6c <launch>
  401e53:	48 8b 05 86 26 20 00 	mov    0x202686(%rip),%rax        # 6044e0 <global_save_stack>
  401e5a:	48 89 c4             	mov    %rax,%rsp
  401e5d:	be 00 00 10 00       	mov    $0x100000,%esi
  401e62:	bf 00 60 58 55       	mov    $0x55586000,%edi
  401e67:	e8 f4 ee ff ff       	callq  400d60 <munmap@plt>
  401e6c:	48 83 c4 08          	add    $0x8,%rsp
  401e70:	c3                   	retq   
  401e71:	be 00 00 10 00       	mov    $0x100000,%esi
  401e76:	48 89 c7             	mov    %rax,%rdi
  401e79:	e8 e2 ee ff ff       	callq  400d60 <munmap@plt>
  401e7e:	ba 00 60 58 55       	mov    $0x55586000,%edx
  401e83:	be 20 34 40 00       	mov    $0x403420,%esi
  401e88:	48 8b 3d 31 26 20 00 	mov    0x202631(%rip),%rdi        # 6044c0 <stderr@@GLIBC_2.2.5>
  401e8f:	b8 00 00 00 00       	mov    $0x0,%eax
  401e94:	e8 77 ee ff ff       	callq  400d10 <fprintf@plt>
  401e99:	bf 01 00 00 00       	mov    $0x1,%edi
  401e9e:	e8 2d ef ff ff       	callq  400dd0 <exit@plt>

0000000000401ea3 <sigalrm_handler>:
  401ea3:	48 83 ec 08          	sub    $0x8,%rsp
  401ea7:	ba 00 00 00 00       	mov    $0x0,%edx
  401eac:	be 60 34 40 00       	mov    $0x403460,%esi
  401eb1:	48 8b 3d 08 26 20 00 	mov    0x202608(%rip),%rdi        # 6044c0 <stderr@@GLIBC_2.2.5>
  401eb8:	b8 00 00 00 00       	mov    $0x0,%eax
  401ebd:	e8 4e ee ff ff       	callq  400d10 <fprintf@plt>
  401ec2:	bf 01 00 00 00       	mov    $0x1,%edi
  401ec7:	e8 04 ef ff ff       	callq  400dd0 <exit@plt>

0000000000401ecc <rio_readlineb>:
  401ecc:	41 56                	push   %r14
  401ece:	41 55                	push   %r13
  401ed0:	41 54                	push   %r12
  401ed2:	55                   	push   %rbp
  401ed3:	53                   	push   %rbx
  401ed4:	48 89 f5             	mov    %rsi,%rbp
  401ed7:	48 83 fa 01          	cmp    $0x1,%rdx
  401edb:	0f 86 9d 00 00 00    	jbe    401f7e <rio_readlineb+0xb2>
  401ee1:	48 89 fb             	mov    %rdi,%rbx
  401ee4:	4c 8d 74 16 ff       	lea    -0x1(%rsi,%rdx,1),%r14
  401ee9:	41 bd 01 00 00 00    	mov    $0x1,%r13d
  401eef:	4c 8d 67 10          	lea    0x10(%rdi),%r12
  401ef3:	eb 17                	jmp    401f0c <rio_readlineb+0x40>
  401ef5:	e8 36 ed ff ff       	callq  400c30 <__errno_location@plt>
  401efa:	83 38 04             	cmpl   $0x4,(%rax)
  401efd:	74 0d                	je     401f0c <rio_readlineb+0x40>
  401eff:	48 c7 c0 ff ff ff ff 	mov    $0xffffffffffffffff,%rax
  401f06:	eb 28                	jmp    401f30 <rio_readlineb+0x64>
  401f08:	4c 89 63 08          	mov    %r12,0x8(%rbx)
  401f0c:	8b 43 04             	mov    0x4(%rbx),%eax
  401f0f:	85 c0                	test   %eax,%eax
  401f11:	7f 2e                	jg     401f41 <rio_readlineb+0x75>
  401f13:	ba 00 20 00 00       	mov    $0x2000,%edx
  401f18:	4c 89 e6             	mov    %r12,%rsi
  401f1b:	8b 3b                	mov    (%rbx),%edi
  401f1d:	e8 be ed ff ff       	callq  400ce0 <read@plt>
  401f22:	89 43 04             	mov    %eax,0x4(%rbx)
  401f25:	85 c0                	test   %eax,%eax
  401f27:	78 cc                	js     401ef5 <rio_readlineb+0x29>
  401f29:	75 dd                	jne    401f08 <rio_readlineb+0x3c>
  401f2b:	b8 00 00 00 00       	mov    $0x0,%eax
  401f30:	85 c0                	test   %eax,%eax
  401f32:	75 52                	jne    401f86 <rio_readlineb+0xba>
  401f34:	b8 00 00 00 00       	mov    $0x0,%eax
  401f39:	49 83 fd 01          	cmp    $0x1,%r13
  401f3d:	75 2f                	jne    401f6e <rio_readlineb+0xa2>
  401f3f:	eb 34                	jmp    401f75 <rio_readlineb+0xa9>
  401f41:	48 8b 53 08          	mov    0x8(%rbx),%rdx
  401f45:	0f b6 0a             	movzbl (%rdx),%ecx
  401f48:	48 83 c2 01          	add    $0x1,%rdx
  401f4c:	48 89 53 08          	mov    %rdx,0x8(%rbx)
  401f50:	83 e8 01             	sub    $0x1,%eax
  401f53:	89 43 04             	mov    %eax,0x4(%rbx)
  401f56:	48 83 c5 01          	add    $0x1,%rbp
  401f5a:	88 4d ff             	mov    %cl,-0x1(%rbp)
  401f5d:	80 f9 0a             	cmp    $0xa,%cl
  401f60:	74 0c                	je     401f6e <rio_readlineb+0xa2>
  401f62:	49 83 c5 01          	add    $0x1,%r13
  401f66:	4c 39 f5             	cmp    %r14,%rbp
  401f69:	75 a1                	jne    401f0c <rio_readlineb+0x40>
  401f6b:	4c 89 f5             	mov    %r14,%rbp
  401f6e:	c6 45 00 00          	movb   $0x0,0x0(%rbp)
  401f72:	4c 89 e8             	mov    %r13,%rax
  401f75:	5b                   	pop    %rbx
  401f76:	5d                   	pop    %rbp
  401f77:	41 5c                	pop    %r12
  401f79:	41 5d                	pop    %r13
  401f7b:	41 5e                	pop    %r14
  401f7d:	c3                   	retq   
  401f7e:	41 bd 01 00 00 00    	mov    $0x1,%r13d
  401f84:	eb e8                	jmp    401f6e <rio_readlineb+0xa2>
  401f86:	48 c7 c0 ff ff ff ff 	mov    $0xffffffffffffffff,%rax
  401f8d:	eb e6                	jmp    401f75 <rio_readlineb+0xa9>

0000000000401f8f <submitr>:
  401f8f:	41 57                	push   %r15
  401f91:	41 56                	push   %r14
  401f93:	41 55                	push   %r13
  401f95:	41 54                	push   %r12
  401f97:	55                   	push   %rbp
  401f98:	53                   	push   %rbx
  401f99:	48 81 ec 68 a0 00 00 	sub    $0xa068,%rsp
  401fa0:	48 89 7c 24 08       	mov    %rdi,0x8(%rsp)
  401fa5:	89 f5                	mov    %esi,%ebp
  401fa7:	48 89 54 24 10       	mov    %rdx,0x10(%rsp)
  401fac:	48 89 4c 24 18       	mov    %rcx,0x18(%rsp)
  401fb1:	4d 89 c5             	mov    %r8,%r13
  401fb4:	4c 89 cb             	mov    %r9,%rbx
  401fb7:	4c 8b bc 24 a0 a0 00 	mov    0xa0a0(%rsp),%r15
  401fbe:	00 
  401fbf:	c7 84 24 3c 20 00 00 	movl   $0x0,0x203c(%rsp)
  401fc6:	00 00 00 00 
  401fca:	ba 00 00 00 00       	mov    $0x0,%edx
  401fcf:	be 01 00 00 00       	mov    $0x1,%esi
  401fd4:	bf 02 00 00 00       	mov    $0x2,%edi
  401fd9:	e8 22 ee ff ff       	callq  400e00 <socket@plt>
  401fde:	85 c0                	test   %eax,%eax
  401fe0:	0f 88 34 01 00 00    	js     40211a <submitr+0x18b>
  401fe6:	41 89 c4             	mov    %eax,%r12d
  401fe9:	48 8b 7c 24 08       	mov    0x8(%rsp),%rdi
  401fee:	e8 0d ed ff ff       	callq  400d00 <gethostbyname@plt>
  401ff3:	48 85 c0             	test   %rax,%rax
  401ff6:	0f 84 6e 01 00 00    	je     40216a <submitr+0x1db>
  401ffc:	48 8d b4 24 50 a0 00 	lea    0xa050(%rsp),%rsi
  402003:	00 
  402004:	48 c7 84 24 52 a0 00 	movq   $0x0,0xa052(%rsp)
  40200b:	00 00 00 00 00 
  402010:	c7 84 24 5a a0 00 00 	movl   $0x0,0xa05a(%rsp)
  402017:	00 00 00 00 
  40201b:	66 c7 84 24 5e a0 00 	movw   $0x0,0xa05e(%rsp)
  402022:	00 00 00 
  402025:	66 c7 84 24 50 a0 00 	movw   $0x2,0xa050(%rsp)
  40202c:	00 02 00 
  40202f:	48 63 50 14          	movslq 0x14(%rax),%rdx
  402033:	48 8b 40 18          	mov    0x18(%rax),%rax
  402037:	48 8d 7e 04          	lea    0x4(%rsi),%rdi
  40203b:	48 8b 30             	mov    (%rax),%rsi
  40203e:	e8 2d ed ff ff       	callq  400d70 <memmove@plt>
  402043:	66 c1 c5 08          	rol    $0x8,%bp
  402047:	66 89 ac 24 52 a0 00 	mov    %bp,0xa052(%rsp)
  40204e:	00 
  40204f:	ba 10 00 00 00       	mov    $0x10,%edx
  402054:	48 8d b4 24 50 a0 00 	lea    0xa050(%rsp),%rsi
  40205b:	00 
  40205c:	44 89 e7             	mov    %r12d,%edi
  40205f:	e8 7c ed ff ff       	callq  400de0 <connect@plt>
  402064:	85 c0                	test   %eax,%eax
  402066:	0f 88 69 01 00 00    	js     4021d5 <submitr+0x246>
  40206c:	49 c7 c1 ff ff ff ff 	mov    $0xffffffffffffffff,%r9
  402073:	b8 00 00 00 00       	mov    $0x0,%eax
  402078:	4c 89 c9             	mov    %r9,%rcx
  40207b:	48 89 df             	mov    %rbx,%rdi
  40207e:	f2 ae                	repnz scas %es:(%rdi),%al
  402080:	48 89 ce             	mov    %rcx,%rsi
  402083:	48 f7 d6             	not    %rsi
  402086:	4c 89 c9             	mov    %r9,%rcx
  402089:	48 8b 7c 24 10       	mov    0x10(%rsp),%rdi
  40208e:	f2 ae                	repnz scas %es:(%rdi),%al
  402090:	49 89 c8             	mov    %rcx,%r8
  402093:	4c 89 c9             	mov    %r9,%rcx
  402096:	48 8b 7c 24 18       	mov    0x18(%rsp),%rdi
  40209b:	f2 ae                	repnz scas %es:(%rdi),%al
  40209d:	48 f7 d1             	not    %rcx
  4020a0:	48 89 ca             	mov    %rcx,%rdx
  4020a3:	4c 89 c9             	mov    %r9,%rcx
  4020a6:	4c 89 ef             	mov    %r13,%rdi
  4020a9:	f2 ae                	repnz scas %es:(%rdi),%al
  4020ab:	4c 29 c2             	sub    %r8,%rdx
  4020ae:	48 29 ca             	sub    %rcx,%rdx
  4020b1:	48 8d 44 76 fd       	lea    -0x3(%rsi,%rsi,2),%rax
  4020b6:	48 8d 44 02 7b       	lea    0x7b(%rdx,%rax,1),%rax
  4020bb:	48 3d 00 20 00 00    	cmp    $0x2000,%rax
  4020c1:	0f 87 6b 01 00 00    	ja     402232 <submitr+0x2a3>
  4020c7:	48 8d 94 24 40 40 00 	lea    0x4040(%rsp),%rdx
  4020ce:	00 
  4020cf:	b9 00 04 00 00       	mov    $0x400,%ecx
  4020d4:	b8 00 00 00 00       	mov    $0x0,%eax
  4020d9:	48 89 d7             	mov    %rdx,%rdi
  4020dc:	f3 48 ab             	rep stos %rax,%es:(%rdi)
  4020df:	48 c7 c1 ff ff ff ff 	mov    $0xffffffffffffffff,%rcx
  4020e6:	48 89 df             	mov    %rbx,%rdi
  4020e9:	f2 ae                	repnz scas %es:(%rdi),%al
  4020eb:	48 89 ce             	mov    %rcx,%rsi
  4020ee:	48 f7 d6             	not    %rsi
  4020f1:	48 89 f1             	mov    %rsi,%rcx
  4020f4:	48 83 e9 01          	sub    $0x1,%rcx
  4020f8:	85 c9                	test   %ecx,%ecx
  4020fa:	0f 84 38 05 00 00    	je     402638 <submitr+0x6a9>
  402100:	8d 41 ff             	lea    -0x1(%rcx),%eax
  402103:	4c 8d 74 03 01       	lea    0x1(%rbx,%rax,1),%r14
  402108:	48 89 d5             	mov    %rdx,%rbp
  40210b:	49 bd d9 ff 00 00 00 	movabs $0x2000000000ffd9,%r13
  402112:	00 20 00 
  402115:	e9 a5 01 00 00       	jmpq   4022bf <submitr+0x330>
  40211a:	48 b8 45 72 72 6f 72 	movabs $0x43203a726f727245,%rax
  402121:	3a 20 43 
  402124:	48 ba 6c 69 65 6e 74 	movabs $0x6e7520746e65696c,%rdx
  40212b:	20 75 6e 
  40212e:	49 89 07             	mov    %rax,(%r15)
  402131:	49 89 57 08          	mov    %rdx,0x8(%r15)
  402135:	48 b8 61 62 6c 65 20 	movabs $0x206f7420656c6261,%rax
  40213c:	74 6f 20 
  40213f:	48 ba 63 72 65 61 74 	movabs $0x7320657461657263,%rdx
  402146:	65 20 73 
  402149:	49 89 47 10          	mov    %rax,0x10(%r15)
  40214d:	49 89 57 18          	mov    %rdx,0x18(%r15)
  402151:	41 c7 47 20 6f 63 6b 	movl   $0x656b636f,0x20(%r15)
  402158:	65 
  402159:	66 41 c7 47 24 74 00 	movw   $0x74,0x24(%r15)
  402160:	b8 ff ff ff ff       	mov    $0xffffffff,%eax
  402165:	e9 54 06 00 00       	jmpq   4027be <submitr+0x82f>
  40216a:	48 b8 45 72 72 6f 72 	movabs $0x44203a726f727245,%rax
  402171:	3a 20 44 
  402174:	48 ba 4e 53 20 69 73 	movabs $0x6e7520736920534e,%rdx
  40217b:	20 75 6e 
  40217e:	49 89 07             	mov    %rax,(%r15)
  402181:	49 89 57 08          	mov    %rdx,0x8(%r15)
  402185:	48 b8 61 62 6c 65 20 	movabs $0x206f7420656c6261,%rax
  40218c:	74 6f 20 
  40218f:	48 ba 72 65 73 6f 6c 	movabs $0x2065766c6f736572,%rdx
  402196:	76 65 20 
  402199:	49 89 47 10          	mov    %rax,0x10(%r15)
  40219d:	49 89 57 18          	mov    %rdx,0x18(%r15)
  4021a1:	48 b8 73 65 72 76 65 	movabs $0x6120726576726573,%rax
  4021a8:	72 20 61 
  4021ab:	49 89 47 20          	mov    %rax,0x20(%r15)
  4021af:	41 c7 47 28 64 64 72 	movl   $0x65726464,0x28(%r15)
  4021b6:	65 
  4021b7:	66 41 c7 47 2c 73 73 	movw   $0x7373,0x2c(%r15)
  4021be:	41 c6 47 2e 00       	movb   $0x0,0x2e(%r15)
  4021c3:	44 89 e7             	mov    %r12d,%edi
  4021c6:	e8 05 eb ff ff       	callq  400cd0 <close@plt>
  4021cb:	b8 ff ff ff ff       	mov    $0xffffffff,%eax
  4021d0:	e9 e9 05 00 00       	jmpq   4027be <submitr+0x82f>
  4021d5:	48 b8 45 72 72 6f 72 	movabs $0x55203a726f727245,%rax
  4021dc:	3a 20 55 
  4021df:	48 ba 6e 61 62 6c 65 	movabs $0x6f7420656c62616e,%rdx
  4021e6:	20 74 6f 
  4021e9:	49 89 07             	mov    %rax,(%r15)
  4021ec:	49 89 57 08          	mov    %rdx,0x8(%r15)
  4021f0:	48 b8 20 63 6f 6e 6e 	movabs $0x7463656e6e6f6320,%rax
  4021f7:	65 63 74 
  4021fa:	48 ba 20 74 6f 20 74 	movabs $0x20656874206f7420,%rdx
  402201:	68 65 20 
  402204:	49 89 47 10          	mov    %rax,0x10(%r15)
  402208:	49 89 57 18          	mov    %rdx,0x18(%r15)
  40220c:	41 c7 47 20 73 65 72 	movl   $0x76726573,0x20(%r15)
  402213:	76 
  402214:	66 41 c7 47 24 65 72 	movw   $0x7265,0x24(%r15)
  40221b:	41 c6 47 26 00       	movb   $0x0,0x26(%r15)
  402220:	44 89 e7             	mov    %r12d,%edi
  402223:	e8 a8 ea ff ff       	callq  400cd0 <close@plt>
  402228:	b8 ff ff ff ff       	mov    $0xffffffff,%eax
  40222d:	e9 8c 05 00 00       	jmpq   4027be <submitr+0x82f>
  402232:	48 b8 45 72 72 6f 72 	movabs $0x52203a726f727245,%rax
  402239:	3a 20 52 
  40223c:	48 ba 65 73 75 6c 74 	movabs $0x747320746c757365,%rdx
  402243:	20 73 74 
  402246:	49 89 07             	mov    %rax,(%r15)
  402249:	49 89 57 08          	mov    %rdx,0x8(%r15)
  40224d:	48 b8 72 69 6e 67 20 	movabs $0x6f6f7420676e6972,%rax
  402254:	74 6f 6f 
  402257:	48 ba 20 6c 61 72 67 	movabs $0x202e656772616c20,%rdx
  40225e:	65 2e 20 
  402261:	49 89 47 10          	mov    %rax,0x10(%r15)
  402265:	49 89 57 18          	mov    %rdx,0x18(%r15)
  402269:	48 b8 49 6e 63 72 65 	movabs $0x6573616572636e49,%rax
  402270:	61 73 65 
  402273:	48 ba 20 53 55 42 4d 	movabs $0x5254494d42555320,%rdx
  40227a:	49 54 52 
  40227d:	49 89 47 20          	mov    %rax,0x20(%r15)
  402281:	49 89 57 28          	mov    %rdx,0x28(%r15)
  402285:	48 b8 5f 4d 41 58 42 	movabs $0x46554258414d5f,%rax
  40228c:	55 46 00 
  40228f:	49 89 47 30          	mov    %rax,0x30(%r15)
  402293:	44 89 e7             	mov    %r12d,%edi
  402296:	e8 35 ea ff ff       	callq  400cd0 <close@plt>
  40229b:	b8 ff ff ff ff       	mov    $0xffffffff,%eax
  4022a0:	e9 19 05 00 00       	jmpq   4027be <submitr+0x82f>
  4022a5:	49 0f a3 c5          	bt     %rax,%r13
  4022a9:	73 1e                	jae    4022c9 <submitr+0x33a>
  4022ab:	88 55 00             	mov    %dl,0x0(%rbp)
  4022ae:	48 8d 6d 01          	lea    0x1(%rbp),%rbp
  4022b2:	48 83 c3 01          	add    $0x1,%rbx
  4022b6:	4c 39 f3             	cmp    %r14,%rbx
  4022b9:	0f 84 79 03 00 00    	je     402638 <submitr+0x6a9>
  4022bf:	0f b6 13             	movzbl (%rbx),%edx
  4022c2:	8d 42 d6             	lea    -0x2a(%rdx),%eax
  4022c5:	3c 35                	cmp    $0x35,%al
  4022c7:	76 dc                	jbe    4022a5 <submitr+0x316>
  4022c9:	89 d0                	mov    %edx,%eax
  4022cb:	83 e0 df             	and    $0xffffffdf,%eax
  4022ce:	83 e8 41             	sub    $0x41,%eax
  4022d1:	3c 19                	cmp    $0x19,%al
  4022d3:	76 d6                	jbe    4022ab <submitr+0x31c>
  4022d5:	80 fa 20             	cmp    $0x20,%dl
  4022d8:	74 45                	je     40231f <submitr+0x390>
  4022da:	8d 42 e0             	lea    -0x20(%rdx),%eax
  4022dd:	3c 5f                	cmp    $0x5f,%al
  4022df:	76 09                	jbe    4022ea <submitr+0x35b>
  4022e1:	80 fa 09             	cmp    $0x9,%dl
  4022e4:	0f 85 c1 02 00 00    	jne    4025ab <submitr+0x61c>
  4022ea:	0f b6 d2             	movzbl %dl,%edx
  4022ed:	be f8 34 40 00       	mov    $0x4034f8,%esi
  4022f2:	48 8d 7c 24 28       	lea    0x28(%rsp),%rdi
  4022f7:	b8 00 00 00 00       	mov    $0x0,%eax
  4022fc:	e8 bf ea ff ff       	callq  400dc0 <sprintf@plt>
  402301:	0f b6 44 24 28       	movzbl 0x28(%rsp),%eax
  402306:	88 45 00             	mov    %al,0x0(%rbp)
  402309:	0f b6 44 24 29       	movzbl 0x29(%rsp),%eax
  40230e:	88 45 01             	mov    %al,0x1(%rbp)
  402311:	0f b6 44 24 2a       	movzbl 0x2a(%rsp),%eax
  402316:	88 45 02             	mov    %al,0x2(%rbp)
  402319:	48 8d 6d 03          	lea    0x3(%rbp),%rbp
  40231d:	eb 93                	jmp    4022b2 <submitr+0x323>
  40231f:	c6 45 00 2b          	movb   $0x2b,0x0(%rbp)
  402323:	48 8d 6d 01          	lea    0x1(%rbp),%rbp
  402327:	eb 89                	jmp    4022b2 <submitr+0x323>
  402329:	48 01 c5             	add    %rax,%rbp
  40232c:	48 29 c3             	sub    %rax,%rbx
  40232f:	0f 84 63 03 00 00    	je     402698 <submitr+0x709>
  402335:	48 89 da             	mov    %rbx,%rdx
  402338:	48 89 ee             	mov    %rbp,%rsi
  40233b:	44 89 e7             	mov    %r12d,%edi
  40233e:	e8 3d e9 ff ff       	callq  400c80 <write@plt>
  402343:	48 85 c0             	test   %rax,%rax
  402346:	7f e1                	jg     402329 <submitr+0x39a>
  402348:	e8 e3 e8 ff ff       	callq  400c30 <__errno_location@plt>
  40234d:	83 38 04             	cmpl   $0x4,(%rax)
  402350:	0f 85 e4 01 00 00    	jne    40253a <submitr+0x5ab>
  402356:	4c 89 e8             	mov    %r13,%rax
  402359:	eb ce                	jmp    402329 <submitr+0x39a>
  40235b:	48 b8 45 72 72 6f 72 	movabs $0x43203a726f727245,%rax
  402362:	3a 20 43 
  402365:	48 ba 6c 69 65 6e 74 	movabs $0x6e7520746e65696c,%rdx
  40236c:	20 75 6e 
  40236f:	49 89 07             	mov    %rax,(%r15)
  402372:	49 89 57 08          	mov    %rdx,0x8(%r15)
  402376:	48 b8 61 62 6c 65 20 	movabs $0x206f7420656c6261,%rax
  40237d:	74 6f 20 
  402380:	48 ba 72 65 61 64 20 	movabs $0x7269662064616572,%rdx
  402387:	66 69 72 
  40238a:	49 89 47 10          	mov    %rax,0x10(%r15)
  40238e:	49 89 57 18          	mov    %rdx,0x18(%r15)
  402392:	48 b8 73 74 20 68 65 	movabs $0x6564616568207473,%rax
  402399:	61 64 65 
  40239c:	48 ba 72 20 66 72 6f 	movabs $0x72206d6f72662072,%rdx
  4023a3:	6d 20 72 
  4023a6:	49 89 47 20          	mov    %rax,0x20(%r15)
  4023aa:	49 89 57 28          	mov    %rdx,0x28(%r15)
  4023ae:	48 b8 65 73 75 6c 74 	movabs $0x657320746c757365,%rax
  4023b5:	20 73 65 
  4023b8:	49 89 47 30          	mov    %rax,0x30(%r15)
  4023bc:	41 c7 47 38 72 76 65 	movl   $0x72657672,0x38(%r15)
  4023c3:	72 
  4023c4:	41 c6 47 3c 00       	movb   $0x0,0x3c(%r15)
  4023c9:	44 89 e7             	mov    %r12d,%edi
  4023cc:	e8 ff e8 ff ff       	callq  400cd0 <close@plt>
  4023d1:	b8 ff ff ff ff       	mov    $0xffffffff,%eax
  4023d6:	e9 e3 03 00 00       	jmpq   4027be <submitr+0x82f>
  4023db:	ba 00 20 00 00       	mov    $0x2000,%edx
  4023e0:	48 8d b4 24 40 60 00 	lea    0x6040(%rsp),%rsi
  4023e7:	00 
  4023e8:	48 8d bc 24 40 80 00 	lea    0x8040(%rsp),%rdi
  4023ef:	00 
  4023f0:	e8 d7 fa ff ff       	callq  401ecc <rio_readlineb>
  4023f5:	48 85 c0             	test   %rax,%rax
  4023f8:	0f 8e 8c 00 00 00    	jle    40248a <submitr+0x4fb>
  4023fe:	8b 94 24 3c 20 00 00 	mov    0x203c(%rsp),%edx
  402405:	81 fa c8 00 00 00    	cmp    $0xc8,%edx
  40240b:	0f 85 00 01 00 00    	jne    402511 <submitr+0x582>
  402411:	48 8d b4 24 40 60 00 	lea    0x6040(%rsp),%rsi
  402418:	00 
  402419:	4c 89 ff             	mov    %r15,%rdi
  40241c:	e8 3f e8 ff ff       	callq  400c60 <strcpy@plt>
  402421:	44 89 e7             	mov    %r12d,%edi
  402424:	e8 a7 e8 ff ff       	callq  400cd0 <close@plt>
  402429:	bf 10 35 40 00       	mov    $0x403510,%edi
  40242e:	b9 04 00 00 00       	mov    $0x4,%ecx
  402433:	4c 89 fe             	mov    %r15,%rsi
  402436:	f3 a6                	repz cmpsb %es:(%rdi),%ds:(%rsi)
  402438:	0f 97 c0             	seta   %al
  40243b:	1c 00                	sbb    $0x0,%al
  40243d:	0f be c0             	movsbl %al,%eax
  402440:	85 c0                	test   %eax,%eax
  402442:	0f 84 76 03 00 00    	je     4027be <submitr+0x82f>
  402448:	bf 14 35 40 00       	mov    $0x403514,%edi
  40244d:	b9 05 00 00 00       	mov    $0x5,%ecx
  402452:	4c 89 fe             	mov    %r15,%rsi
  402455:	f3 a6                	repz cmpsb %es:(%rdi),%ds:(%rsi)
  402457:	0f 97 c0             	seta   %al
  40245a:	1c 00                	sbb    $0x0,%al
  40245c:	0f be c0             	movsbl %al,%eax
  40245f:	85 c0                	test   %eax,%eax
  402461:	0f 84 57 03 00 00    	je     4027be <submitr+0x82f>
  402467:	bf 19 35 40 00       	mov    $0x403519,%edi
  40246c:	b9 03 00 00 00       	mov    $0x3,%ecx
  402471:	4c 89 fe             	mov    %r15,%rsi
  402474:	f3 a6                	repz cmpsb %es:(%rdi),%ds:(%rsi)
  402476:	0f 97 c0             	seta   %al
  402479:	1c 00                	sbb    $0x0,%al
  40247b:	84 c0                	test   %al,%al
  40247d:	0f 95 c0             	setne  %al
  402480:	0f b6 c0             	movzbl %al,%eax
  402483:	f7 d8                	neg    %eax
  402485:	e9 34 03 00 00       	jmpq   4027be <submitr+0x82f>
  40248a:	48 b8 45 72 72 6f 72 	movabs $0x43203a726f727245,%rax
  402491:	3a 20 43 
  402494:	48 ba 6c 69 65 6e 74 	movabs $0x6e7520746e65696c,%rdx
  40249b:	20 75 6e 
  40249e:	49 89 07             	mov    %rax,(%r15)
  4024a1:	49 89 57 08          	mov    %rdx,0x8(%r15)
  4024a5:	48 b8 61 62 6c 65 20 	movabs $0x206f7420656c6261,%rax
  4024ac:	74 6f 20 
  4024af:	48 ba 72 65 61 64 20 	movabs $0x6174732064616572,%rdx
  4024b6:	73 74 61 
  4024b9:	49 89 47 10          	mov    %rax,0x10(%r15)
  4024bd:	49 89 57 18          	mov    %rdx,0x18(%r15)
  4024c1:	48 b8 74 75 73 20 6d 	movabs $0x7373656d20737574,%rax
  4024c8:	65 73 73 
  4024cb:	48 ba 61 67 65 20 66 	movabs $0x6d6f726620656761,%rdx
  4024d2:	72 6f 6d 
  4024d5:	49 89 47 20          	mov    %rax,0x20(%r15)
  4024d9:	49 89 57 28          	mov    %rdx,0x28(%r15)
  4024dd:	48 b8 20 72 65 73 75 	movabs $0x20746c7573657220,%rax
  4024e4:	6c 74 20 
  4024e7:	49 89 47 30          	mov    %rax,0x30(%r15)
  4024eb:	41 c7 47 38 73 65 72 	movl   $0x76726573,0x38(%r15)
  4024f2:	76 
  4024f3:	66 41 c7 47 3c 65 72 	movw   $0x7265,0x3c(%r15)
  4024fa:	41 c6 47 3e 00       	movb   $0x0,0x3e(%r15)
  4024ff:	44 89 e7             	mov    %r12d,%edi
  402502:	e8 c9 e7 ff ff       	callq  400cd0 <close@plt>
  402507:	b8 ff ff ff ff       	mov    $0xffffffff,%eax
  40250c:	e9 ad 02 00 00       	jmpq   4027be <submitr+0x82f>
  402511:	48 8d 4c 24 30       	lea    0x30(%rsp),%rcx
  402516:	be 88 34 40 00       	mov    $0x403488,%esi
  40251b:	4c 89 ff             	mov    %r15,%rdi
  40251e:	b8 00 00 00 00       	mov    $0x0,%eax
  402523:	e8 98 e8 ff ff       	callq  400dc0 <sprintf@plt>
  402528:	44 89 e7             	mov    %r12d,%edi
  40252b:	e8 a0 e7 ff ff       	callq  400cd0 <close@plt>
  402530:	b8 ff ff ff ff       	mov    $0xffffffff,%eax
  402535:	e9 84 02 00 00       	jmpq   4027be <submitr+0x82f>
  40253a:	48 b8 45 72 72 6f 72 	movabs $0x43203a726f727245,%rax
  402541:	3a 20 43 
  402544:	48 ba 6c 69 65 6e 74 	movabs $0x6e7520746e65696c,%rdx
  40254b:	20 75 6e 
  40254e:	49 89 07             	mov    %rax,(%r15)
  402551:	49 89 57 08          	mov    %rdx,0x8(%r15)
  402555:	48 b8 61 62 6c 65 20 	movabs $0x206f7420656c6261,%rax
  40255c:	74 6f 20 
  40255f:	48 ba 77 72 69 74 65 	movabs $0x6f74206574697277,%rdx
  402566:	20 74 6f 
  402569:	49 89 47 10          	mov    %rax,0x10(%r15)
  40256d:	49 89 57 18          	mov    %rdx,0x18(%r15)
  402571:	48 b8 20 74 68 65 20 	movabs $0x7365722065687420,%rax
  402578:	72 65 73 
  40257b:	48 ba 75 6c 74 20 73 	movabs $0x7672657320746c75,%rdx
  402582:	65 72 76 
  402585:	49 89 47 20          	mov    %rax,0x20(%r15)
  402589:	49 89 57 28          	mov    %rdx,0x28(%r15)
  40258d:	66 41 c7 47 30 65 72 	movw   $0x7265,0x30(%r15)
  402594:	41 c6 47 32 00       	movb   $0x0,0x32(%r15)
  402599:	44 89 e7             	mov    %r12d,%edi
  40259c:	e8 2f e7 ff ff       	callq  400cd0 <close@plt>
  4025a1:	b8 ff ff ff ff       	mov    $0xffffffff,%eax
  4025a6:	e9 13 02 00 00       	jmpq   4027be <submitr+0x82f>
  4025ab:	48 b8 45 72 72 6f 72 	movabs $0x52203a726f727245,%rax
  4025b2:	3a 20 52 
  4025b5:	48 ba 65 73 75 6c 74 	movabs $0x747320746c757365,%rdx
  4025bc:	20 73 74 
  4025bf:	49 89 07             	mov    %rax,(%r15)
  4025c2:	49 89 57 08          	mov    %rdx,0x8(%r15)
  4025c6:	48 b8 72 69 6e 67 20 	movabs $0x6e6f6320676e6972,%rax
  4025cd:	63 6f 6e 
  4025d0:	48 ba 74 61 69 6e 73 	movabs $0x6e6120736e696174,%rdx
  4025d7:	20 61 6e 
  4025da:	49 89 47 10          	mov    %rax,0x10(%r15)
  4025de:	49 89 57 18          	mov    %rdx,0x18(%r15)
  4025e2:	48 b8 20 69 6c 6c 65 	movabs $0x6c6167656c6c6920,%rax
  4025e9:	67 61 6c 
  4025ec:	48 ba 20 6f 72 20 75 	movabs $0x72706e7520726f20,%rdx
  4025f3:	6e 70 72 
  4025f6:	49 89 47 20          	mov    %rax,0x20(%r15)
  4025fa:	49 89 57 28          	mov    %rdx,0x28(%r15)
  4025fe:	48 b8 69 6e 74 61 62 	movabs $0x20656c6261746e69,%rax
  402605:	6c 65 20 
  402608:	48 ba 63 68 61 72 61 	movabs $0x6574636172616863,%rdx
  40260f:	63 74 65 
  402612:	49 89 47 30          	mov    %rax,0x30(%r15)
  402616:	49 89 57 38          	mov    %rdx,0x38(%r15)
  40261a:	66 41 c7 47 40 72 2e 	movw   $0x2e72,0x40(%r15)
  402621:	41 c6 47 42 00       	movb   $0x0,0x42(%r15)
  402626:	44 89 e7             	mov    %r12d,%edi
  402629:	e8 a2 e6 ff ff       	callq  400cd0 <close@plt>
  40262e:	b8 ff ff ff ff       	mov    $0xffffffff,%eax
  402633:	e9 86 01 00 00       	jmpq   4027be <submitr+0x82f>
  402638:	48 8d ac 24 40 60 00 	lea    0x6040(%rsp),%rbp
  40263f:	00 
  402640:	4c 8b 4c 24 08       	mov    0x8(%rsp),%r9
  402645:	4c 8d 84 24 40 40 00 	lea    0x4040(%rsp),%r8
  40264c:	00 
  40264d:	48 8b 4c 24 10       	mov    0x10(%rsp),%rcx
  402652:	48 8b 54 24 18       	mov    0x18(%rsp),%rdx
  402657:	be b8 34 40 00       	mov    $0x4034b8,%esi
  40265c:	48 89 ef             	mov    %rbp,%rdi
  40265f:	b8 00 00 00 00       	mov    $0x0,%eax
  402664:	e8 57 e7 ff ff       	callq  400dc0 <sprintf@plt>
  402669:	48 c7 c1 ff ff ff ff 	mov    $0xffffffffffffffff,%rcx
  402670:	b8 00 00 00 00       	mov    $0x0,%eax
  402675:	48 89 ef             	mov    %rbp,%rdi
  402678:	f2 ae                	repnz scas %es:(%rdi),%al
  40267a:	48 f7 d1             	not    %rcx
  40267d:	48 8d ac 24 40 60 00 	lea    0x6040(%rsp),%rbp
  402684:	00 
  402685:	41 bd 00 00 00 00    	mov    $0x0,%r13d
  40268b:	48 83 e9 01          	sub    $0x1,%rcx
  40268f:	48 89 cb             	mov    %rcx,%rbx
  402692:	0f 85 9d fc ff ff    	jne    402335 <submitr+0x3a6>
  402698:	44 89 a4 24 40 80 00 	mov    %r12d,0x8040(%rsp)
  40269f:	00 
  4026a0:	c7 84 24 44 80 00 00 	movl   $0x0,0x8044(%rsp)
  4026a7:	00 00 00 00 
  4026ab:	48 8d 84 24 50 80 00 	lea    0x8050(%rsp),%rax
  4026b2:	00 
  4026b3:	48 89 84 24 48 80 00 	mov    %rax,0x8048(%rsp)
  4026ba:	00 
  4026bb:	ba 00 20 00 00       	mov    $0x2000,%edx
  4026c0:	48 8d b4 24 40 60 00 	lea    0x6040(%rsp),%rsi
  4026c7:	00 
  4026c8:	48 8d bc 24 40 80 00 	lea    0x8040(%rsp),%rdi
  4026cf:	00 
  4026d0:	e8 f7 f7 ff ff       	callq  401ecc <rio_readlineb>
  4026d5:	48 85 c0             	test   %rax,%rax
  4026d8:	0f 8e 7d fc ff ff    	jle    40235b <submitr+0x3cc>
  4026de:	4c 8d 44 24 30       	lea    0x30(%rsp),%r8
  4026e3:	48 8d 8c 24 3c 20 00 	lea    0x203c(%rsp),%rcx
  4026ea:	00 
  4026eb:	48 8d 94 24 40 20 00 	lea    0x2040(%rsp),%rdx
  4026f2:	00 
  4026f3:	be ff 34 40 00       	mov    $0x4034ff,%esi
  4026f8:	48 8d bc 24 40 60 00 	lea    0x6040(%rsp),%rdi
  4026ff:	00 
  402700:	b8 00 00 00 00       	mov    $0x0,%eax
  402705:	e8 46 e6 ff ff       	callq  400d50 <__isoc99_sscanf@plt>
  40270a:	48 8d 9c 24 40 60 00 	lea    0x6040(%rsp),%rbx
  402711:	00 
  402712:	bf 16 35 40 00       	mov    $0x403516,%edi
  402717:	b9 03 00 00 00       	mov    $0x3,%ecx
  40271c:	48 89 de             	mov    %rbx,%rsi
  40271f:	f3 a6                	repz cmpsb %es:(%rdi),%ds:(%rsi)
  402721:	0f 97 c0             	seta   %al
  402724:	1c 00                	sbb    $0x0,%al
  402726:	84 c0                	test   %al,%al
  402728:	0f 84 ad fc ff ff    	je     4023db <submitr+0x44c>
  40272e:	ba 00 20 00 00       	mov    $0x2000,%edx
  402733:	48 89 de             	mov    %rbx,%rsi
  402736:	48 8d bc 24 40 80 00 	lea    0x8040(%rsp),%rdi
  40273d:	00 
  40273e:	e8 89 f7 ff ff       	callq  401ecc <rio_readlineb>
  402743:	48 85 c0             	test   %rax,%rax
  402746:	7f ca                	jg     402712 <submitr+0x783>
  402748:	48 b8 45 72 72 6f 72 	movabs $0x43203a726f727245,%rax
  40274f:	3a 20 43 
  402752:	48 ba 6c 69 65 6e 74 	movabs $0x6e7520746e65696c,%rdx
  402759:	20 75 6e 
  40275c:	49 89 07             	mov    %rax,(%r15)
  40275f:	49 89 57 08          	mov    %rdx,0x8(%r15)
  402763:	48 b8 61 62 6c 65 20 	movabs $0x206f7420656c6261,%rax
  40276a:	74 6f 20 
  40276d:	48 ba 72 65 61 64 20 	movabs $0x6165682064616572,%rdx
  402774:	68 65 61 
  402777:	49 89 47 10          	mov    %rax,0x10(%r15)
  40277b:	49 89 57 18          	mov    %rdx,0x18(%r15)
  40277f:	48 b8 64 65 72 73 20 	movabs $0x6f72662073726564,%rax
  402786:	66 72 6f 
  402789:	48 ba 6d 20 74 68 65 	movabs $0x657220656874206d,%rdx
  402790:	20 72 65 
  402793:	49 89 47 20          	mov    %rax,0x20(%r15)
  402797:	49 89 57 28          	mov    %rdx,0x28(%r15)
  40279b:	48 b8 73 75 6c 74 20 	movabs $0x72657320746c7573,%rax
  4027a2:	73 65 72 
  4027a5:	49 89 47 30          	mov    %rax,0x30(%r15)
  4027a9:	41 c7 47 38 76 65 72 	movl   $0x726576,0x38(%r15)
  4027b0:	00 
  4027b1:	44 89 e7             	mov    %r12d,%edi
  4027b4:	e8 17 e5 ff ff       	callq  400cd0 <close@plt>
  4027b9:	b8 ff ff ff ff       	mov    $0xffffffff,%eax
  4027be:	48 81 c4 68 a0 00 00 	add    $0xa068,%rsp
  4027c5:	5b                   	pop    %rbx
  4027c6:	5d                   	pop    %rbp
  4027c7:	41 5c                	pop    %r12
  4027c9:	41 5d                	pop    %r13
  4027cb:	41 5e                	pop    %r14
  4027cd:	41 5f                	pop    %r15
  4027cf:	c3                   	retq   

00000000004027d0 <init_timeout>:
  4027d0:	85 ff                	test   %edi,%edi
  4027d2:	74 23                	je     4027f7 <init_timeout+0x27>
  4027d4:	53                   	push   %rbx
  4027d5:	89 fb                	mov    %edi,%ebx
  4027d7:	be a3 1e 40 00       	mov    $0x401ea3,%esi
  4027dc:	bf 0e 00 00 00       	mov    $0xe,%edi
  4027e1:	e8 0a e5 ff ff       	callq  400cf0 <signal@plt>
  4027e6:	85 db                	test   %ebx,%ebx
  4027e8:	bf 00 00 00 00       	mov    $0x0,%edi
  4027ed:	0f 49 fb             	cmovns %ebx,%edi
  4027f0:	e8 cb e4 ff ff       	callq  400cc0 <alarm@plt>
  4027f5:	5b                   	pop    %rbx
  4027f6:	c3                   	retq   
  4027f7:	c3                   	retq   

00000000004027f8 <init_driver>:
  4027f8:	55                   	push   %rbp
  4027f9:	53                   	push   %rbx
  4027fa:	48 83 ec 18          	sub    $0x18,%rsp
  4027fe:	48 89 fd             	mov    %rdi,%rbp
  402801:	be 01 00 00 00       	mov    $0x1,%esi
  402806:	bf 0d 00 00 00       	mov    $0xd,%edi
  40280b:	e8 e0 e4 ff ff       	callq  400cf0 <signal@plt>
  402810:	be 01 00 00 00       	mov    $0x1,%esi
  402815:	bf 1d 00 00 00       	mov    $0x1d,%edi
  40281a:	e8 d1 e4 ff ff       	callq  400cf0 <signal@plt>
  40281f:	be 01 00 00 00       	mov    $0x1,%esi
  402824:	bf 1d 00 00 00       	mov    $0x1d,%edi
  402829:	e8 c2 e4 ff ff       	callq  400cf0 <signal@plt>
  40282e:	ba 00 00 00 00       	mov    $0x0,%edx
  402833:	be 01 00 00 00       	mov    $0x1,%esi
  402838:	bf 02 00 00 00       	mov    $0x2,%edi
  40283d:	e8 be e5 ff ff       	callq  400e00 <socket@plt>
  402842:	85 c0                	test   %eax,%eax
  402844:	0f 88 83 00 00 00    	js     4028cd <init_driver+0xd5>
  40284a:	89 c3                	mov    %eax,%ebx
  40284c:	bf e8 2e 40 00       	mov    $0x402ee8,%edi
  402851:	e8 aa e4 ff ff       	callq  400d00 <gethostbyname@plt>
  402856:	48 85 c0             	test   %rax,%rax
  402859:	0f 84 ba 00 00 00    	je     402919 <init_driver+0x121>
  40285f:	48 c7 44 24 02 00 00 	movq   $0x0,0x2(%rsp)
  402866:	00 00 
  402868:	c7 44 24 0a 00 00 00 	movl   $0x0,0xa(%rsp)
  40286f:	00 
  402870:	66 c7 44 24 0e 00 00 	movw   $0x0,0xe(%rsp)
  402877:	66 c7 04 24 02 00    	movw   $0x2,(%rsp)
  40287d:	48 63 50 14          	movslq 0x14(%rax),%rdx
  402881:	48 8b 40 18          	mov    0x18(%rax),%rax
  402885:	48 8d 7c 24 04       	lea    0x4(%rsp),%rdi
  40288a:	48 8b 30             	mov    (%rax),%rsi
  40288d:	e8 de e4 ff ff       	callq  400d70 <memmove@plt>
  402892:	66 c7 44 24 02 3b 6e 	movw   $0x6e3b,0x2(%rsp)
  402899:	ba 10 00 00 00       	mov    $0x10,%edx
  40289e:	48 89 e6             	mov    %rsp,%rsi
  4028a1:	89 df                	mov    %ebx,%edi
  4028a3:	e8 38 e5 ff ff       	callq  400de0 <connect@plt>
  4028a8:	85 c0                	test   %eax,%eax
  4028aa:	0f 88 d1 00 00 00    	js     402981 <init_driver+0x189>
  4028b0:	89 df                	mov    %ebx,%edi
  4028b2:	e8 19 e4 ff ff       	callq  400cd0 <close@plt>
  4028b7:	66 c7 45 00 4f 4b    	movw   $0x4b4f,0x0(%rbp)
  4028bd:	c6 45 02 00          	movb   $0x0,0x2(%rbp)
  4028c1:	b8 00 00 00 00       	mov    $0x0,%eax
  4028c6:	48 83 c4 18          	add    $0x18,%rsp
  4028ca:	5b                   	pop    %rbx
  4028cb:	5d                   	pop    %rbp
  4028cc:	c3                   	retq   
  4028cd:	48 b8 45 72 72 6f 72 	movabs $0x43203a726f727245,%rax
  4028d4:	3a 20 43 
  4028d7:	48 ba 6c 69 65 6e 74 	movabs $0x6e7520746e65696c,%rdx
  4028de:	20 75 6e 
  4028e1:	48 89 45 00          	mov    %rax,0x0(%rbp)
  4028e5:	48 89 55 08          	mov    %rdx,0x8(%rbp)
  4028e9:	48 b8 61 62 6c 65 20 	movabs $0x206f7420656c6261,%rax
  4028f0:	74 6f 20 
  4028f3:	48 ba 63 72 65 61 74 	movabs $0x7320657461657263,%rdx
  4028fa:	65 20 73 
  4028fd:	48 89 45 10          	mov    %rax,0x10(%rbp)
  402901:	48 89 55 18          	mov    %rdx,0x18(%rbp)
  402905:	c7 45 20 6f 63 6b 65 	movl   $0x656b636f,0x20(%rbp)
  40290c:	66 c7 45 24 74 00    	movw   $0x74,0x24(%rbp)
  402912:	b8 ff ff ff ff       	mov    $0xffffffff,%eax
  402917:	eb ad                	jmp    4028c6 <init_driver+0xce>
  402919:	48 b8 45 72 72 6f 72 	movabs $0x44203a726f727245,%rax
  402920:	3a 20 44 
  402923:	48 ba 4e 53 20 69 73 	movabs $0x6e7520736920534e,%rdx
  40292a:	20 75 6e 
  40292d:	48 89 45 00          	mov    %rax,0x0(%rbp)
  402931:	48 89 55 08          	mov    %rdx,0x8(%rbp)
  402935:	48 b8 61 62 6c 65 20 	movabs $0x206f7420656c6261,%rax
  40293c:	74 6f 20 
  40293f:	48 ba 72 65 73 6f 6c 	movabs $0x2065766c6f736572,%rdx
  402946:	76 65 20 
  402949:	48 89 45 10          	mov    %rax,0x10(%rbp)
  40294d:	48 89 55 18          	mov    %rdx,0x18(%rbp)
  402951:	48 b8 73 65 72 76 65 	movabs $0x6120726576726573,%rax
  402958:	72 20 61 
  40295b:	48 89 45 20          	mov    %rax,0x20(%rbp)
  40295f:	c7 45 28 64 64 72 65 	movl   $0x65726464,0x28(%rbp)
  402966:	66 c7 45 2c 73 73    	movw   $0x7373,0x2c(%rbp)
  40296c:	c6 45 2e 00          	movb   $0x0,0x2e(%rbp)
  402970:	89 df                	mov    %ebx,%edi
  402972:	e8 59 e3 ff ff       	callq  400cd0 <close@plt>
  402977:	b8 ff ff ff ff       	mov    $0xffffffff,%eax
  40297c:	e9 45 ff ff ff       	jmpq   4028c6 <init_driver+0xce>
  402981:	48 b8 45 72 72 6f 72 	movabs $0x55203a726f727245,%rax
  402988:	3a 20 55 
  40298b:	48 ba 6e 61 62 6c 65 	movabs $0x6f7420656c62616e,%rdx
  402992:	20 74 6f 
  402995:	48 89 45 00          	mov    %rax,0x0(%rbp)
  402999:	48 89 55 08          	mov    %rdx,0x8(%rbp)
  40299d:	48 b8 20 63 6f 6e 6e 	movabs $0x7463656e6e6f6320,%rax
  4029a4:	65 63 74 
  4029a7:	48 ba 20 74 6f 20 73 	movabs $0x76726573206f7420,%rdx
  4029ae:	65 72 76 
  4029b1:	48 89 45 10          	mov    %rax,0x10(%rbp)
  4029b5:	48 89 55 18          	mov    %rdx,0x18(%rbp)
  4029b9:	66 c7 45 20 65 72    	movw   $0x7265,0x20(%rbp)
  4029bf:	c6 45 22 00          	movb   $0x0,0x22(%rbp)
  4029c3:	89 df                	mov    %ebx,%edi
  4029c5:	e8 06 e3 ff ff       	callq  400cd0 <close@plt>
  4029ca:	b8 ff ff ff ff       	mov    $0xffffffff,%eax
  4029cf:	e9 f2 fe ff ff       	jmpq   4028c6 <init_driver+0xce>

00000000004029d4 <driver_post>:
  4029d4:	53                   	push   %rbx
  4029d5:	4c 89 cb             	mov    %r9,%rbx
  4029d8:	45 85 c0             	test   %r8d,%r8d
  4029db:	75 18                	jne    4029f5 <driver_post+0x21>
  4029dd:	48 85 ff             	test   %rdi,%rdi
  4029e0:	74 05                	je     4029e7 <driver_post+0x13>
  4029e2:	80 3f 00             	cmpb   $0x0,(%rdi)
  4029e5:	75 30                	jne    402a17 <driver_post+0x43>
  4029e7:	66 c7 03 4f 4b       	movw   $0x4b4f,(%rbx)
  4029ec:	c6 43 02 00          	movb   $0x0,0x2(%rbx)
  4029f0:	44 89 c0             	mov    %r8d,%eax
  4029f3:	5b                   	pop    %rbx
  4029f4:	c3                   	retq   
  4029f5:	48 89 ce             	mov    %rcx,%rsi
  4029f8:	bf 1c 35 40 00       	mov    $0x40351c,%edi
  4029fd:	b8 00 00 00 00       	mov    $0x0,%eax
  402a02:	e8 99 e2 ff ff       	callq  400ca0 <printf@plt>
  402a07:	66 c7 03 4f 4b       	movw   $0x4b4f,(%rbx)
  402a0c:	c6 43 02 00          	movb   $0x0,0x2(%rbx)
  402a10:	b8 00 00 00 00       	mov    $0x0,%eax
  402a15:	eb dc                	jmp    4029f3 <driver_post+0x1f>
  402a17:	48 83 ec 08          	sub    $0x8,%rsp
  402a1b:	41 51                	push   %r9
  402a1d:	49 89 c9             	mov    %rcx,%r9
  402a20:	49 89 d0             	mov    %rdx,%r8
  402a23:	48 89 f9             	mov    %rdi,%rcx
  402a26:	48 89 f2             	mov    %rsi,%rdx
  402a29:	be 6e 3b 00 00       	mov    $0x3b6e,%esi
  402a2e:	bf e8 2e 40 00       	mov    $0x402ee8,%edi
  402a33:	e8 57 f5 ff ff       	callq  401f8f <submitr>
  402a38:	48 83 c4 10          	add    $0x10,%rsp
  402a3c:	eb b5                	jmp    4029f3 <driver_post+0x1f>

0000000000402a3e <check>:
  402a3e:	b8 00 00 00 00       	mov    $0x0,%eax
  402a43:	89 fa                	mov    %edi,%edx
  402a45:	c1 ea 1c             	shr    $0x1c,%edx
  402a48:	74 29                	je     402a73 <check+0x35>
  402a4a:	40 80 ff 0a          	cmp    $0xa,%dil
  402a4e:	74 18                	je     402a68 <check+0x2a>
  402a50:	89 f8                	mov    %edi,%eax
  402a52:	0f b6 c4             	movzbl %ah,%eax
  402a55:	83 f8 0a             	cmp    $0xa,%eax
  402a58:	74 14                	je     402a6e <check+0x30>
  402a5a:	c1 ef 10             	shr    $0x10,%edi
  402a5d:	40 80 ff 0a          	cmp    $0xa,%dil
  402a61:	0f 95 c0             	setne  %al
  402a64:	0f b6 c0             	movzbl %al,%eax
  402a67:	c3                   	retq   
  402a68:	b8 00 00 00 00       	mov    $0x0,%eax
  402a6d:	c3                   	retq   
  402a6e:	b8 00 00 00 00       	mov    $0x0,%eax
  402a73:	c3                   	retq   

0000000000402a74 <gencookie>:
  402a74:	53                   	push   %rbx
  402a75:	83 c7 01             	add    $0x1,%edi
  402a78:	e8 c3 e1 ff ff       	callq  400c40 <srandom@plt>
  402a7d:	e8 be e2 ff ff       	callq  400d40 <random@plt>
  402a82:	89 c3                	mov    %eax,%ebx
  402a84:	89 c7                	mov    %eax,%edi
  402a86:	e8 b3 ff ff ff       	callq  402a3e <check>
  402a8b:	85 c0                	test   %eax,%eax
  402a8d:	74 ee                	je     402a7d <gencookie+0x9>
  402a8f:	89 d8                	mov    %ebx,%eax
  402a91:	5b                   	pop    %rbx
  402a92:	c3                   	retq   
  402a93:	66 2e 0f 1f 84 00 00 	nopw   %cs:0x0(%rax,%rax,1)
  402a9a:	00 00 00 
  402a9d:	0f 1f 00             	nopl   (%rax)

0000000000402aa0 <__libc_csu_init>:
  402aa0:	f3 0f 1e fa          	endbr64 
  402aa4:	41 57                	push   %r15
  402aa6:	49 89 d7             	mov    %rdx,%r15
  402aa9:	41 56                	push   %r14
  402aab:	49 89 f6             	mov    %rsi,%r14
  402aae:	41 55                	push   %r13
  402ab0:	41 89 fd             	mov    %edi,%r13d
  402ab3:	41 54                	push   %r12
  402ab5:	4c 8d 25 44 13 20 00 	lea    0x201344(%rip),%r12        # 603e00 <__frame_dummy_init_array_entry>
  402abc:	55                   	push   %rbp
  402abd:	48 8d 2d 44 13 20 00 	lea    0x201344(%rip),%rbp        # 603e08 <__init_array_end>
  402ac4:	53                   	push   %rbx
  402ac5:	4c 29 e5             	sub    %r12,%rbp
  402ac8:	48 83 ec 08          	sub    $0x8,%rsp
  402acc:	e8 1f e1 ff ff       	callq  400bf0 <_init>
  402ad1:	48 c1 fd 03          	sar    $0x3,%rbp
  402ad5:	74 1f                	je     402af6 <__libc_csu_init+0x56>
  402ad7:	31 db                	xor    %ebx,%ebx
  402ad9:	0f 1f 80 00 00 00 00 	nopl   0x0(%rax)
  402ae0:	4c 89 fa             	mov    %r15,%rdx
  402ae3:	4c 89 f6             	mov    %r14,%rsi
  402ae6:	44 89 ef             	mov    %r13d,%edi
  402ae9:	41 ff 14 dc          	callq  *(%r12,%rbx,8)
  402aed:	48 83 c3 01          	add    $0x1,%rbx
  402af1:	48 39 dd             	cmp    %rbx,%rbp
  402af4:	75 ea                	jne    402ae0 <__libc_csu_init+0x40>
  402af6:	48 83 c4 08          	add    $0x8,%rsp
  402afa:	5b                   	pop    %rbx
  402afb:	5d                   	pop    %rbp
  402afc:	41 5c                	pop    %r12
  402afe:	41 5d                	pop    %r13
  402b00:	41 5e                	pop    %r14
  402b02:	41 5f                	pop    %r15
  402b04:	c3                   	retq   

0000000000402b05 <.annobin___libc_csu_fini.start>:
  402b05:	66 66 2e 0f 1f 84 00 	data16 nopw %cs:0x0(%rax,%rax,1)
  402b0c:	00 00 00 00 

0000000000402b10 <__libc_csu_fini>:
  402b10:	f3 0f 1e fa          	endbr64 
  402b14:	c3                   	retq   

Disassembly of section .fini:

0000000000402b18 <_fini>:
  402b18:	f3 0f 1e fa          	endbr64 
  402b1c:	48 83 ec 08          	sub    $0x8,%rsp
  402b20:	48 83 c4 08          	add    $0x8,%rsp
  402b24:	c3                   	retq   
